Archive member included to satisfy reference by file (symbol)

arch/arm/lib/lib.a(lib1funcs.o)
                              arch/arm/mach-imx/built-in.o (__aeabi_uidiv)
arch/arm/lib/lib.a(uldivmod.o)
                              common/built-in.o (__aeabi_uldivmod)
arch/arm/lib/lib.a(div0.o)    arch/arm/lib/lib.a(lib1funcs.o) (__div0)

Discarded input sections

 .data          0x0000000000000000        0x0 arch/arm/cpu/armv7/start.o
 .bss           0x0000000000000000        0x0 arch/arm/cpu/armv7/start.o
 .text.v7_arch_cp15_set_l2aux_ctrl
                0x0000000000000000        0x8 arch/arm/cpu/armv7/built-in.o
 .text.v7_arch_cp15_set_acr
                0x0000000000000000        0x8 arch/arm/cpu/armv7/built-in.o
 .text.sdelay   0x0000000000000000        0xc arch/arm/cpu/armv7/built-in.o
 .text.wait_on_value
                0x0000000000000000       0x38 arch/arm/cpu/armv7/built-in.o
 .text.s_init   0x0000000000000000        0x4 arch/arm/cpu/armv7/built-in.o
 .text.smp_kick_all_cpus
                0x0000000000000000       0x20 arch/arm/cpu/armv7/built-in.o
 .data          0x0000000000000000        0x0 arch/arm/cpu/armv7/built-in.o
 .bss           0x0000000000000000        0x0 arch/arm/cpu/armv7/built-in.o
 .text.reset_misc
                0x0000000000000000        0x4 arch/arm/lib/built-in.o
 .text.enable_caches
                0x0000000000000000        0xc arch/arm/lib/built-in.o
 .text.invalidate_dcache_range
                0x0000000000000000        0x4 arch/arm/lib/built-in.o
 .text.flush_dcache_range
                0x0000000000000000        0x4 arch/arm/lib/built-in.o
 .text.flush_dcache_all
                0x0000000000000000        0xc arch/arm/lib/built-in.o
 .text.arm_init_before_mmu
                0x0000000000000000        0x4 arch/arm/lib/built-in.o
 .text.mmu_page_table_flush
                0x0000000000000000        0x4 arch/arm/lib/built-in.o
 .rodata.enable_caches.str1.1
                0x0000000000000000       0x1d arch/arm/lib/built-in.o
 .data          0x0000000000000000        0x0 arch/arm/lib/built-in.o
 .bss           0x0000000000000000        0x0 arch/arm/lib/built-in.o
 .text          0x0000000000000000        0x0 arch/arm/mach-imx/built-in.o
 .text.imx_iomux_set_gpr_register
                0x0000000000000000       0x4c arch/arm/mach-imx/built-in.o
 .text.get_imx_reset_cause
                0x0000000000000000       0x10 arch/arm/mach-imx/built-in.o
 .text.get_som_type
                0x0000000000000000      0x24c arch/arm/mach-imx/built-in.o
 .text.set_chipselect_size
                0x0000000000000000       0x84 arch/arm/mach-imx/built-in.o
 .text.init_src
                0x0000000000000000       0x20 arch/arm/mach-imx/built-in.o
 .text.imx_rdc_setup_ma
                0x0000000000000000       0x24 arch/arm/mach-imx/built-in.o
 .text.imx_rdc_setup_masters
                0x0000000000000000       0x34 arch/arm/mach-imx/built-in.o
 .text.usec2ticks
                0x0000000000000000       0x64 arch/arm/mach-imx/built-in.o
 .text.get_board_rev
                0x0000000000000000        0x4 arch/arm/mach-imx/built-in.o
 .text.set_clk_qspi
                0x0000000000000000       0x34 arch/arm/mach-imx/built-in.o
 .text.set_clk_nand
                0x0000000000000000       0x38 arch/arm/mach-imx/built-in.o
 .text.clock_set_prediv
                0x0000000000000000       0x90 arch/arm/mach-imx/built-in.o
 .text.clock_set_postdiv
                0x0000000000000000       0x8c arch/arm/mach-imx/built-in.o
 .text.clock_set_autopostdiv
                0x0000000000000000       0x94 arch/arm/mach-imx/built-in.o
 .text.clock_get_target_val
                0x0000000000000000       0x28 arch/arm/mach-imx/built-in.o
 .text.clock_root_cfg
                0x0000000000000000      0x108 arch/arm/mach-imx/built-in.o
 .text.mx7_dram_cfg
                0x0000000000000000      0x26c arch/arm/mach-imx/built-in.o
 .text.imx_ddr_size
                0x0000000000000000      0x174 arch/arm/mach-imx/built-in.o
 .rodata.get_som_type.str1.1
                0x0000000000000000       0x77 arch/arm/mach-imx/built-in.o
 .rodata.set_chipselect_size.str1.1
                0x0000000000000000       0x1e arch/arm/mach-imx/built-in.o
 .rodata.clock_set_autopostdiv.str1.1
                0x0000000000000000       0x1e arch/arm/mach-imx/built-in.o
 .rodata.clock_set_postdiv.str1.1
                0x0000000000000000       0x11 arch/arm/mach-imx/built-in.o
 .rodata.clock_set_prediv.str1.1
                0x0000000000000000       0x10 arch/arm/mach-imx/built-in.o
 .data          0x0000000000000000        0x0 arch/arm/mach-imx/built-in.o
 .bss           0x0000000000000000        0x0 arch/arm/mach-imx/built-in.o
 .text          0x0000000000000000        0x0 board/technexion/pico-imx7d/built-in.o
 .data          0x0000000000000000        0x0 board/technexion/pico-imx7d/built-in.o
 .bss           0x0000000000000000        0x0 board/technexion/pico-imx7d/built-in.o
 .text          0x0000000000000000        0x0 cmd/built-in.o
 .text.gunzip_bmp
                0x0000000000000000        0x8 cmd/built-in.o
 .text.bootz_setup
                0x0000000000000000       0x18 cmd/built-in.o
 .text.invalidate_icache_all
                0x0000000000000000        0xc cmd/built-in.o
 .text.flush_dcache_all
                0x0000000000000000        0xc cmd/built-in.o
 .rodata.bootz_setup.str1.1
                0x0000000000000000       0x34 cmd/built-in.o
 .rodata.flush_dcache_all.str1.1
                0x0000000000000000       0x2e cmd/built-in.o
 .rodata.invalidate_icache_all.str1.1
                0x0000000000000000       0x33 cmd/built-in.o
 .data          0x0000000000000000        0x0 cmd/built-in.o
 .bss           0x0000000000000000        0x0 cmd/built-in.o
 .text          0x0000000000000000        0x0 common/built-in.o
 .text.hash_progressive_lookup_algo
                0x0000000000000000       0x60 common/built-in.o
 .text.hash_parse_string
                0x0000000000000000       0x68 common/built-in.o
 .text.hash_block
                0x0000000000000000       0x6c common/built-in.o
 .text.unset_local_var
                0x0000000000000000       0x9c common/built-in.o
 .text.arch_cpu_init
                0x0000000000000000        0x8 common/built-in.o
 .text.red_led_off
                0x0000000000000000        0x4 common/built-in.o
 .text.green_led_on
                0x0000000000000000        0x4 common/built-in.o
 .text.green_led_off
                0x0000000000000000        0x4 common/built-in.o
 .text.yellow_led_on
                0x0000000000000000        0x4 common/built-in.o
 .text.yellow_led_off
                0x0000000000000000        0x4 common/built-in.o
 .text.blue_led_on
                0x0000000000000000        0x4 common/built-in.o
 .text.blue_led_off
                0x0000000000000000        0x4 common/built-in.o
 .text.arch_reserve_stacks
                0x0000000000000000        0x8 common/built-in.o
 .text.power_init_board
                0x0000000000000000        0x8 common/built-in.o
 .text.board_flash_wp_on
                0x0000000000000000        0x8 common/built-in.o
 .text.fixup_cpu
                0x0000000000000000        0x8 common/built-in.o
 .text.checkboard
                0x0000000000000000        0x8 common/built-in.o
 .text.arch_preboot_os
                0x0000000000000000        0x4 common/built-in.o
 .text.of_bus_default_map
                0x0000000000000000       0xdc common/built-in.o
 .text.fdt_read_prop
                0x0000000000000000       0x64 common/built-in.o
 .text.of_bus_default_translate
                0x0000000000000000       0xa4 common/built-in.o
 .text.fdt_support_default_count_cells
                0x0000000000000000       0x58 common/built-in.o
 .text.fdt_getprop_u32_default_node
                0x0000000000000000       0x40 common/built-in.o
 .text.fdt_getprop_u32_default
                0x0000000000000000       0x40 common/built-in.o
 .text.do_fixup_by_path_u32
                0x0000000000000000       0x2c common/built-in.o
 .text.do_fixup_by_prop
                0x0000000000000000       0x9c common/built-in.o
 .text.do_fixup_by_prop_u32
                0x0000000000000000       0x38 common/built-in.o
 .text.do_fixup_by_compat
                0x0000000000000000       0x8c common/built-in.o
 .text.do_fixup_by_compat_u32
                0x0000000000000000       0x2c common/built-in.o
 .text.fdt_record_loadable
                0x0000000000000000      0x16c common/built-in.o
 .text.fdt_increase_size
                0x0000000000000000       0x14 common/built-in.o
 .text.fdt_del_node_and_alias
                0x0000000000000000       0x44 common/built-in.o
 .text.fdt_translate_address
                0x0000000000000000      0x294 common/built-in.o
 .text.fdt_node_offset_by_compat_reg
                0x0000000000000000       0x8c common/built-in.o
 .text.fdt_alloc_phandle
                0x0000000000000000       0x58 common/built-in.o
 .text.fdt_set_phandle
                0x0000000000000000       0x60 common/built-in.o
 .text.fdt_create_phandle
                0x0000000000000000       0x64 common/built-in.o
 .text.fdt_set_node_status
                0x0000000000000000       0xe8 common/built-in.o
 .text.fdt_set_status_by_alias
                0x0000000000000000       0x2c common/built-in.o
 .text.fdt_add_edid
                0x0000000000000000       0xac common/built-in.o
 .text.fdt_verify_alias_address
                0x0000000000000000       0xcc common/built-in.o
 .text.fdt_get_base_address
                0x0000000000000000       0x40 common/built-in.o
 .text.fdt_read_range
                0x0000000000000000      0x13c common/built-in.o
 .text.fdt_setup_simplefb_node
                0x0000000000000000      0x208 common/built-in.o
 .text.fdt_fixup_display
                0x0000000000000000       0xd4 common/built-in.o
 .text.mdio_free
                0x0000000000000000        0x4 common/built-in.o
 .text.mdio_register_seq
                0x0000000000000000       0x34 common/built-in.o
 .text.usb_detect_change
                0x0000000000000000       0x68 common/built-in.o
 .text.usb_submit_int_msg
                0x0000000000000000        0x4 common/built-in.o
 .text.usb_set_protocol
                0x0000000000000000       0x4c common/built-in.o
 .text.usb_set_idle
                0x0000000000000000       0x54 common/built-in.o
 .text.usb_get_report
                0x0000000000000000       0x5c common/built-in.o
 .text.usb_get_class_descriptor
                0x0000000000000000       0x5c common/built-in.o
 .text.usb_stor_reset
                0x0000000000000000       0x14 common/built-in.o
 .text.cli_simple_parse_line
                0x0000000000000000       0x8c common/built-in.o
 .text.cli_simple_process_macros
                0x0000000000000000      0x214 common/built-in.o
 .text.cli_simple_run_command
                0x0000000000000000      0x160 common/built-in.o
 .text.cli_simple_loop
                0x0000000000000000       0x80 common/built-in.o
 .text.cli_simple_run_command_list
                0x0000000000000000       0x70 common/built-in.o
 .text.bounce_buffer_start
                0x0000000000000000       0x88 common/built-in.o
 .text.bounce_buffer_stop
                0x0000000000000000       0x54 common/built-in.o
 .text.fprintf  0x0000000000000000       0x58 common/built-in.o
 .text.disable_ctrlc
                0x0000000000000000       0x18 common/built-in.o
 .text.console_announce_r
                0x0000000000000000       0x58 common/built-in.o
 .text.valloc   0x0000000000000000        0xc common/built-in.o
 .text.pvalloc  0x0000000000000000       0x18 common/built-in.o
 .text.cfree    0x0000000000000000        0x4 common/built-in.o
 .text.malloc_usable_size
                0x0000000000000000       0x44 common/built-in.o
 .text.mallopt  0x0000000000000000       0x54 common/built-in.o
 .text.memalign_simple
                0x0000000000000000       0x44 common/built-in.o
 .text.genimg_get_short_name
                0x0000000000000000       0x1c common/built-in.o
 .text.genimg_get_cat_name
                0x0000000000000000       0x5c common/built-in.o
 .text.genimg_get_cat_short_name
                0x0000000000000000       0x5c common/built-in.o
 .text.genimg_get_cat_count
                0x0000000000000000       0x18 common/built-in.o
 .text.genimg_get_cat_desc
                0x0000000000000000       0x18 common/built-in.o
 .text.genimg_get_type_short_name
                0x0000000000000000       0x10 common/built-in.o
 .text.genimg_get_comp_short_name
                0x0000000000000000       0x10 common/built-in.o
 .text.genimg_get_os_short_name
                0x0000000000000000       0x10 common/built-in.o
 .text.genimg_get_arch_short_name
                0x0000000000000000       0x10 common/built-in.o
 .text.genimg_get_kernel_addr
                0x0000000000000000       0x24 common/built-in.o
 .text.arch_fixup_fdt
                0x0000000000000000        0x8 common/built-in.o
 .text.fit_get_subimage_count
                0x0000000000000000       0x54 common/built-in.o
 .text.fit_get_timestamp
                0x0000000000000000       0x48 common/built-in.o
 .text.fit_image_get_data_position
                0x0000000000000000       0x34 common/built-in.o
 .text.fit_set_timestamp
                0x0000000000000000       0x40 common/built-in.o
 .text.fit_conf_find_compat
                0x0000000000000000      0x1a0 common/built-in.o
 .text.fit_conf_get_prop_node_count
                0x0000000000000000        0x4 common/built-in.o
 .text.get_ram_size
                0x0000000000000000       0xe0 common/built-in.o
 .text.stdio_init
                0x0000000000000000       0x14 common/built-in.o
 .text.fb_mmc_sparse_write
                0x0000000000000000       0x1c common/built-in.o
 .text.fb_mmc_sparse_reserve
                0x0000000000000000        0x8 common/built-in.o
 .text.part_get_info_by_name_or_alias
                0x0000000000000000       0x6c common/built-in.o
 .text.fb_mmc_flash_write
                0x0000000000000000      0x2d4 common/built-in.o
 .text.fb_mmc_erase
                0x0000000000000000      0x130 common/built-in.o
 .text.run_command_repeatable
                0x0000000000000000       0x1c common/built-in.o
 .rodata.__FUNCTION__.9927
                0x0000000000000000       0x17 common/built-in.o
 .rodata.__func__.9809
                0x0000000000000000       0x14 common/built-in.o
 .rodata.fdt_add_edid.str1.1
                0x0000000000000000       0x3b common/built-in.o
 .rodata.fdt_create_phandle.str1.1
                0x0000000000000000       0x1a common/built-in.o
 .rodata.fdt_fixup_display.str1.1
                0x0000000000000000       0x1c common/built-in.o
 .rodata.fdt_read_range.str1.1
                0x0000000000000000        0xf common/built-in.o
 .rodata.fdt_record_loadable.str1.1
                0x0000000000000000       0x2e common/built-in.o
 .rodata.fdt_set_node_status.str1.1
                0x0000000000000000       0x3a common/built-in.o
 .rodata.fdt_set_phandle.str1.1
                0x0000000000000000       0x16 common/built-in.o
 .rodata.fdt_setup_simplefb_node.str1.1
                0x0000000000000000       0x2c common/built-in.o
 .rodata.fdt_support_default_count_cells.str1.1
                0x0000000000000000        0xc common/built-in.o
 .rodata.fdt_translate_address.str1.1
                0x0000000000000000       0x22 common/built-in.o
 .rodata.fdt_verify_alias_address.str1.1
                0x0000000000000000       0xcd common/built-in.o
 .rodata.mdio_register_seq.str1.1
                0x0000000000000000        0x6 common/built-in.o
 .rodata.cli_simple_loop.str1.1
                0x0000000000000000       0x11 common/built-in.o
 .rodata.cli_simple_parse_line.str1.1
                0x0000000000000000       0x1f common/built-in.o
 .rodata.cli_simple_run_command.str1.1
                0x0000000000000000       0x16 common/built-in.o
 .rodata.genimg_get_short_name.str1.1
                0x0000000000000000        0x8 common/built-in.o
 .rodata.table_info
                0x0000000000000000       0x30 common/built-in.o
 .rodata.unknown_str.9871
                0x0000000000000000        0x9 common/built-in.o
 .rodata.fit_get_timestamp.str1.1
                0x0000000000000000        0xa common/built-in.o
 .rodata.fit_image_get_data_position.str1.1
                0x0000000000000000        0xe common/built-in.o
 .rodata.__func__.9412
                0x0000000000000000       0x13 common/built-in.o
 .rodata.fb_mmc_erase.str1.1
                0x0000000000000000       0xa6 common/built-in.o
 .rodata.fb_mmc_flash_write.str1.1
                0x0000000000000000      0x288 common/built-in.o
 .rodata.part_get_info_by_name_or_alias.str1.1
                0x0000000000000000       0x1a common/built-in.o
 .data          0x0000000000000000        0x0 common/built-in.o
 .data.of_busses
                0x0000000000000000       0x18 common/built-in.o
 .bss           0x0000000000000000        0x0 common/built-in.o
 .bss.lastcommand.8884
                0x0000000000000000      0x801 common/built-in.o
 .bss.msg.9872  0x0000000000000000       0x1e common/built-in.o
 .bss.save_addr
                0x0000000000000000        0x4 common/built-in.o
 .bss.save_size
                0x0000000000000000        0x4 common/built-in.o
 .text          0x0000000000000000        0x0 disk/built-in.o
 .text.part_get_info_by_name_type
                0x0000000000000000       0xb8 disk/built-in.o
 .text.part_get_info_by_name
                0x0000000000000000        0x8 disk/built-in.o
 .text.is_valid_dos_buf
                0x0000000000000000       0x18 disk/built-in.o
 .text.write_mbr_partition
                0x0000000000000000       0x68 disk/built-in.o
 .text.get_disk_guid
                0x0000000000000000       0xdc disk/built-in.o
 .text.write_gpt_table
                0x0000000000000000      0x4a8 disk/built-in.o
 .text.gpt_fill_pte
                0x0000000000000000      0x2f0 disk/built-in.o
 .text.gpt_fill_header
                0x0000000000000000      0x1f8 disk/built-in.o
 .text.gpt_restore
                0x0000000000000000      0x124 disk/built-in.o
 .text.gpt_verify_headers
                0x0000000000000000       0x7c disk/built-in.o
 .text.gpt_verify_partitions
                0x0000000000000000      0x220 disk/built-in.o
 .text.write_mbr_and_gpt_partitions
                0x0000000000000000      0x3c0 disk/built-in.o
 .rodata        0x0000000000000000       0x10 disk/built-in.o
 .rodata.__func__.8902
                0x0000000000000000       0x14 disk/built-in.o
 .rodata.write_mbr_partition.str1.1
                0x0000000000000000       0x2d disk/built-in.o
 .rodata.__func__.9599
                0x0000000000000000        0xe disk/built-in.o
 .rodata.__func__.9632
                0x0000000000000000       0x13 disk/built-in.o
 .rodata.__func__.9693
                0x0000000000000000        0xc disk/built-in.o
 .rodata.__func__.9711
                0x0000000000000000       0x13 disk/built-in.o
 .rodata.__func__.9744
                0x0000000000000000       0x1d disk/built-in.o
 .rodata.gpt_fill_pte.str1.1
                0x0000000000000000       0x37 disk/built-in.o
 .rodata.gpt_verify_partitions.str1.1
                0x0000000000000000       0xa3 disk/built-in.o
 .rodata.write_gpt_table.str1.1
                0x0000000000000000       0x55 disk/built-in.o
 .data          0x0000000000000000        0x0 disk/built-in.o
 .bss           0x0000000000000000        0x0 disk/built-in.o
 .text          0x0000000000000000        0x0 drivers/built-in.o
 .text._device_find_global_by_of_offset
                0x0000000000000000       0x50 drivers/built-in.o
 .text.device_bind_with_driver_data
                0x0000000000000000       0x24 drivers/built-in.o
 .text.device_bind
                0x0000000000000000       0x28 drivers/built-in.o
 .text.dev_get_parent_platdata
                0x0000000000000000       0x30 drivers/built-in.o
 .text.dev_get_uclass_platdata
                0x0000000000000000       0x30 drivers/built-in.o
 .text.dev_get_uclass_priv
                0x0000000000000000       0x30 drivers/built-in.o
 .text.dev_get_parent_priv
                0x0000000000000000       0x30 drivers/built-in.o
 .text.device_get_child
                0x0000000000000000       0x50 drivers/built-in.o
 .text.device_find_child_by_seq
                0x0000000000000000       0x68 drivers/built-in.o
 .text.device_get_child_by_seq
                0x0000000000000000       0x58 drivers/built-in.o
 .text.device_find_child_by_of_offset
                0x0000000000000000       0x4c drivers/built-in.o
 .text.device_get_child_by_of_offset
                0x0000000000000000       0x3c drivers/built-in.o
 .text.device_get_global_by_of_offset
                0x0000000000000000       0x38 drivers/built-in.o
 .text.device_find_first_child
                0x0000000000000000       0x1c drivers/built-in.o
 .text.device_find_next_child
                0x0000000000000000       0x28 drivers/built-in.o
 .text.dev_get_parent
                0x0000000000000000        0x8 drivers/built-in.o
 .text.dev_get_driver_data
                0x0000000000000000        0x8 drivers/built-in.o
 .text.dev_get_driver_ops
                0x0000000000000000       0x10 drivers/built-in.o
 .text.device_get_uclass_id
                0x0000000000000000       0x10 drivers/built-in.o
 .text.dev_get_uclass_name
                0x0000000000000000       0x14 drivers/built-in.o
 .text.device_has_children
                0x0000000000000000       0x14 drivers/built-in.o
 .text.device_has_active_children
                0x0000000000000000       0x40 drivers/built-in.o
 .text.device_is_last_sibling
                0x0000000000000000       0x24 drivers/built-in.o
 .text.device_set_name_alloced
                0x0000000000000000       0x10 drivers/built-in.o
 .text.device_set_name
                0x0000000000000000       0x30 drivers/built-in.o
 .text.device_is_compatible
                0x0000000000000000       0x24 drivers/built-in.o
 .text.of_machine_is_compatible
                0x0000000000000000       0x24 drivers/built-in.o
 .text.devfdt_get_addr_index
                0x0000000000000000        0x8 drivers/built-in.o
 .text.devfdt_get_addr_size_index
                0x0000000000000000        0x8 drivers/built-in.o
 .text.devfdt_get_addr_name
                0x0000000000000000        0x8 drivers/built-in.o
 .text.devfdt_get_addr
                0x0000000000000000        0x8 drivers/built-in.o
 .text.devfdt_get_addr_ptr
                0x0000000000000000        0x8 drivers/built-in.o
 .text.devfdt_map_physmem
                0x0000000000000000        0x8 drivers/built-in.o
 .text.device_bind_driver_to_node
                0x0000000000000000       0x48 drivers/built-in.o
 .text.device_bind_driver
                0x0000000000000000       0x18 drivers/built-in.o
 .text.dm_fixup_for_gd_move
                0x0000000000000000       0x20 drivers/built-in.o
 .text.dm_get_translation_offset
                0x0000000000000000       0x14 drivers/built-in.o
 .text.dm_set_translation_offset
                0x0000000000000000       0x18 drivers/built-in.o
 .text.dm_uninit
                0x0000000000000000       0x20 drivers/built-in.o
 .text.dm_extended_scan_fdt
                0x0000000000000000       0x38 drivers/built-in.o
 .text.uclass_destroy
                0x0000000000000000       0x9c drivers/built-in.o
 .text.uclass_get_name
                0x0000000000000000       0x28 drivers/built-in.o
 .text.uclass_get_by_name
                0x0000000000000000       0x4c drivers/built-in.o
 .text.uclass_find_first_device
                0x0000000000000000       0x3c drivers/built-in.o
 .text.uclass_find_next_device
                0x0000000000000000       0x2c drivers/built-in.o
 .text.uclass_find_device_by_name
                0x0000000000000000       0x88 drivers/built-in.o
 .text.uclass_find_device_by_of_offset
                0x0000000000000000       0x68 drivers/built-in.o
 .text.uclass_find_device_by_ofnode
                0x0000000000000000       0x6c drivers/built-in.o
 .text.uclass_get_device_by_driver
                0x0000000000000000       0x6c drivers/built-in.o
 .text.uclass_get_device_by_name
                0x0000000000000000       0x30 drivers/built-in.o
 .text.uclass_get_device_by_seq
                0x0000000000000000       0x54 drivers/built-in.o
 .text.uclass_get_device_by_of_offset
                0x0000000000000000       0x30 drivers/built-in.o
 .text.uclass_get_device_by_ofnode
                0x0000000000000000       0x30 drivers/built-in.o
 .text.uclass_first_device
                0x0000000000000000       0x38 drivers/built-in.o
 .text.uclass_first_device_err
                0x0000000000000000       0x24 drivers/built-in.o
 .text.uclass_next_device
                0x0000000000000000       0x40 drivers/built-in.o
 .text.uclass_first_device_check
                0x0000000000000000       0x34 drivers/built-in.o
 .text.uclass_next_device_check
                0x0000000000000000       0x2c drivers/built-in.o
 .text.list_count_items
                0x0000000000000000       0x28 drivers/built-in.o
 .text.dm_fdt_pre_reloc
                0x0000000000000000       0x68 drivers/built-in.o
 .text.device_unbind
                0x0000000000000000      0x144 drivers/built-in.o
 .text.do_job   0x0000000000000000       0x9c drivers/built-in.o
 .text.jr_reset
                0x0000000000000000       0xa0 drivers/built-in.o
 .text.secmem_set_cmd_1
                0x0000000000000000       0x1c drivers/built-in.o
 .text.caam_decap_blob
                0x0000000000000000       0xc4 drivers/built-in.o
 .text.caam_gen_blob
                0x0000000000000000       0xd4 drivers/built-in.o
 .text.caam_hwrng
                0x0000000000000000       0x98 drivers/built-in.o
 .text.caam_open
                0x0000000000000000      0x3c4 drivers/built-in.o
 .text.fuse_bank_physical
                0x0000000000000000        0x4 drivers/built-in.o
 .text.fuse_word_physical
                0x0000000000000000        0x8 drivers/built-in.o
 .text.board_mmc_getcd
                0x0000000000000000        0x8 drivers/built-in.o
 .text.cpu_mmc_init
                0x0000000000000000        0x8 drivers/built-in.o
 .text.board_mmc_init
                0x0000000000000000        0x8 drivers/built-in.o
 .text.mmc_set_preinit
                0x0000000000000000        0x8 drivers/built-in.o
 .text.mmc_destroy
                0x0000000000000000        0x4 drivers/built-in.o
 .text.esdhc_status_fixup
                0x0000000000000000        0x8 drivers/built-in.o
 .text.fdt_fixup_esdhc
                0x0000000000000000       0x44 drivers/built-in.o
 .text.board_video_skip
                0x0000000000000000        0x8 drivers/built-in.o
 .text.video_position_cursor
                0x0000000000000000       0x60 drivers/built-in.o
 .text.video_get_pixel_width
                0x0000000000000000       0x14 drivers/built-in.o
 .text.video_get_pixel_height
                0x0000000000000000       0x14 drivers/built-in.o
 .text.video_get_screen_rows
                0x0000000000000000       0x28 drivers/built-in.o
 .text.video_get_screen_columns
                0x0000000000000000       0x18 drivers/built-in.o
 .text.mxs_lcd_get_panel
                0x0000000000000000       0x3c drivers/built-in.o
 .text.video_get_video_mode
                0x0000000000000000      0x184 drivers/built-in.o
 .text.video_get_ctfb_res_modes
                0x0000000000000000       0xf0 drivers/built-in.o
 .text.video_get_option_string
                0x0000000000000000       0xac drivers/built-in.o
 .text.video_get_option_int
                0x0000000000000000       0x84 drivers/built-in.o
 .text.video_edid_dtd_to_ctfb_res_modes
                0x0000000000000000      0x198 drivers/built-in.o
 .text.reset_cpu
                0x0000000000000000       0x38 drivers/built-in.o
 .text._input_send_keycodes
                0x0000000000000000      0x418 drivers/built-in.o
 .text.input_tstc
                0x0000000000000000       0x48 drivers/built-in.o
 .text.input_getc
                0x0000000000000000       0x5c drivers/built-in.o
 .text.input_send_keycodes
                0x0000000000000000        0x8 drivers/built-in.o
 .text.input_add_keycode
                0x0000000000000000       0x84 drivers/built-in.o
 .text.input_add_table
                0x0000000000000000       0x40 drivers/built-in.o
 .text.input_set_delays
                0x0000000000000000        0xc drivers/built-in.o
 .text.input_allow_repeats
                0x0000000000000000        0x8 drivers/built-in.o
 .text.input_leds_changed
                0x0000000000000000       0x14 drivers/built-in.o
 .text.input_add_tables
                0x0000000000000000       0x98 drivers/built-in.o
 .text.input_init
                0x0000000000000000       0x24 drivers/built-in.o
 .text.input_stdio_register
                0x0000000000000000       0x54 drivers/built-in.o
 .rodata.__func__.10777
                0x0000000000000000       0x18 drivers/built-in.o
 .rodata.__func__.10781
                0x0000000000000000       0x18 drivers/built-in.o
 .rodata.__func__.10789
                0x0000000000000000       0x14 drivers/built-in.o
 .rodata.__func__.10793
                0x0000000000000000       0x14 drivers/built-in.o
 .rodata.dm_extended_scan_fdt.str1.1
                0x0000000000000000        0x8 drivers/built-in.o
 .rodata.dm_fdt_pre_reloc.str1.1
                0x0000000000000000       0x30 drivers/built-in.o
 .rodata.caam_decap_blob.str1.1
                0x0000000000000000       0x23 drivers/built-in.o
 .rodata.caam_gen_blob.str1.1
                0x0000000000000000       0x23 drivers/built-in.o
 .rodata.caam_hwrng.str1.1
                0x0000000000000000       0x21 drivers/built-in.o
 .rodata.caam_open.str1.1
                0x0000000000000000      0x113 drivers/built-in.o
 .rodata.jr_reset.str1.1
                0x0000000000000000       0x34 drivers/built-in.o
 .rodata.rng_inst_load_keys
                0x0000000000000000       0x10 drivers/built-in.o
 .rodata.rng_inst_sh0_desc
                0x0000000000000000        0x8 drivers/built-in.o
 .rodata.rng_inst_sh1_desc
                0x0000000000000000       0x10 drivers/built-in.o
 .rodata.fdt_fixup_esdhc.str1.1
                0x0000000000000000       0x1a drivers/built-in.o
 .rodata.vesa_modes
                0x0000000000000000       0xe4 drivers/built-in.o
 .rodata.video_get_ctfb_res_modes.str1.1
                0x0000000000000000       0x43 drivers/built-in.o
 .rodata.video_get_video_mode.str1.1
                0x0000000000000000        0xb drivers/built-in.o
 .rodata.input_stdio_register.str1.1
                0x0000000000000000        0x6 drivers/built-in.o
 .rodata.kbd_plain_xlate
                0x0000000000000000       0x64 drivers/built-in.o
 .rodata.kbd_plain_xlate_german
                0x0000000000000000       0x84 drivers/built-in.o
 .rodata.kbd_to_ansi364
                0x0000000000000000       0x20 drivers/built-in.o
 .data          0x0000000000000000        0x0 drivers/built-in.o
 .data.g_jrdata
                0x0000000000000000      0x210 drivers/built-in.o
 .data.skeymod  0x0000000000000000       0x10 drivers/built-in.o
 .data.kbd_ctrl_xlate
                0x0000000000000000       0x64 drivers/built-in.o
 .data.kbd_entry
                0x0000000000000000       0x8c drivers/built-in.o
 .data.kbd_right_alt_xlate_german
                0x0000000000000000       0x58 drivers/built-in.o
 .data.kbd_shift_xlate
                0x0000000000000000       0x64 drivers/built-in.o
 .data.kbd_shift_xlate_german
                0x0000000000000000       0x84 drivers/built-in.o
 .bss           0x0000000000000000        0x0 drivers/built-in.o
 .bss.desc      0x0000000000000000       0x80 drivers/built-in.o
 .text          0x0000000000000000        0x0 drivers/gpio/built-in.o
 .data          0x0000000000000000        0x0 drivers/gpio/built-in.o
 .bss           0x0000000000000000        0x0 drivers/gpio/built-in.o
 .text          0x0000000000000000        0x0 drivers/i2c/built-in.o
 .text.i2c_init_board
                0x0000000000000000        0x4 drivers/i2c/built-in.o
 .text.i2c_early_init_f
                0x0000000000000000       0x68 drivers/i2c/built-in.o
 .text.i2c_reg_read
                0x0000000000000000       0x20 drivers/i2c/built-in.o
 .text.i2c_reg_write
                0x0000000000000000       0x20 drivers/i2c/built-in.o
 .text.i2c_get_base
                0x0000000000000000       0x18 drivers/i2c/built-in.o
 .text.__enable_i2c_clk
                0x0000000000000000        0x8 drivers/i2c/built-in.o
 .data          0x0000000000000000        0x0 drivers/i2c/built-in.o
 .bss           0x0000000000000000        0x0 drivers/i2c/built-in.o
 .text          0x0000000000000000        0x0 drivers/net/built-in.o
 .data          0x0000000000000000        0x0 drivers/net/built-in.o
 .bss           0x0000000000000000        0x0 drivers/net/built-in.o
 .text          0x0000000000000000        0x0 drivers/net/phy/built-in.o
 .text.phy_set_supported
                0x0000000000000000       0x5c drivers/net/phy/built-in.o
 .text.miiphy_reset
                0x0000000000000000       0x24 drivers/net/phy/built-in.o
 .text.phy_connect
                0x0000000000000000       0x50 drivers/net/phy/built-in.o
 .text.board_phy_config
                0x0000000000000000       0x1c drivers/net/phy/built-in.o
 .text.phy_shutdown
                0x0000000000000000       0x28 drivers/net/phy/built-in.o
 .text.phy_get_interface_by_name
                0x0000000000000000       0x40 drivers/net/phy/built-in.o
 .rodata.phy_connect.str1.1
                0x0000000000000000       0x23 drivers/net/phy/built-in.o
 .rodata.phy_interface_strings
                0x0000000000000000       0x44 drivers/net/phy/built-in.o
 .data          0x0000000000000000        0x0 drivers/net/phy/built-in.o
 .bss           0x0000000000000000        0x0 drivers/net/phy/built-in.o
 .text          0x0000000000000000        0x0 drivers/power/built-in.o
 .text.pmic_set_output
                0x0000000000000000       0x64 drivers/power/built-in.o
 .data          0x0000000000000000        0x0 drivers/power/built-in.o
 .bss           0x0000000000000000        0x0 drivers/power/built-in.o
 .text          0x0000000000000000        0x0 drivers/power/pmic/built-in.o
 .data          0x0000000000000000        0x0 drivers/power/pmic/built-in.o
 .bss           0x0000000000000000        0x0 drivers/power/pmic/built-in.o
 .text          0x0000000000000000        0x0 drivers/serial/built-in.o
 .text.serial_reinit_all
                0x0000000000000000       0x28 drivers/serial/built-in.o
 .data          0x0000000000000000        0x0 drivers/serial/built-in.o
 .bss           0x0000000000000000        0x0 drivers/serial/built-in.o
 .text          0x0000000000000000        0x0 drivers/spi/built-in.o
 .text.spi_set_wordlen
                0x0000000000000000       0x30 drivers/spi/built-in.o
 .text.spi_do_alloc_slave
                0x0000000000000000       0x4c drivers/spi/built-in.o
 .rodata.spi_set_wordlen.str1.1
                0x0000000000000000       0x19 drivers/spi/built-in.o
 .data          0x0000000000000000        0x0 drivers/spi/built-in.o
 .bss           0x0000000000000000        0x0 drivers/spi/built-in.o
 .comment       0x0000000000000000       0x12 drivers/spi/built-in.o
 .note.GNU-stack
                0x0000000000000000        0x0 drivers/spi/built-in.o
 .ARM.attributes
                0x0000000000000000       0x2d drivers/spi/built-in.o
 .debug_aranges
                0x0000000000000000       0x28 drivers/spi/built-in.o
 .debug_info    0x0000000000000000      0xd46 drivers/spi/built-in.o
 .debug_abbrev  0x0000000000000000      0x22f drivers/spi/built-in.o
 .debug_line    0x0000000000000000      0x478 drivers/spi/built-in.o
 .debug_frame   0x0000000000000000       0x4c drivers/spi/built-in.o
 .debug_str     0x0000000000000000      0xbb2 drivers/spi/built-in.o
 .debug_loc     0x0000000000000000      0x10f drivers/spi/built-in.o
 .debug_ranges  0x0000000000000000       0x18 drivers/spi/built-in.o
 .text          0x0000000000000000        0x0 drivers/usb/eth/built-in.o
 .text.is_eth_dev_on_usb_host
                0x0000000000000000       0x6c drivers/usb/eth/built-in.o
 .data          0x0000000000000000        0x0 drivers/usb/eth/built-in.o
 .bss           0x0000000000000000        0x0 drivers/usb/eth/built-in.o
 .text          0x0000000000000000        0x0 drivers/usb/gadget/built-in.o
 .text.usb_gadget_config_buf
                0x0000000000000000       0x90 drivers/usb/gadget/built-in.o
 .text.dfu_usb_get_reset
                0x0000000000000000       0x20 drivers/usb/gadget/built-in.o
 .text.usb_function_deactivate
                0x0000000000000000       0x58 drivers/usb/gadget/built-in.o
 .text.usb_function_activate
                0x0000000000000000       0x58 drivers/usb/gadget/built-in.o
 .text.usb_string_ids_tab
                0x0000000000000000       0x3c drivers/usb/gadget/built-in.o
 .text.usb_string_ids_n
                0x0000000000000000       0x2c drivers/usb/gadget/built-in.o
 .text.board_usb_init
                0x0000000000000000        0x8 drivers/usb/gadget/built-in.o
 .text.board_usb_cleanup
                0x0000000000000000        0x8 drivers/usb/gadget/built-in.o
 .text.set_bit  0x0000000000000000       0x1c drivers/usb/gadget/built-in.o
 .text.clear_bit
                0x0000000000000000       0x1c drivers/usb/gadget/built-in.o
 .text.read_from_partition_multi
                0x0000000000000000      0x228 drivers/usb/gadget/built-in.o
 .text.fastboot_flash_find_index
                0x0000000000000000       0x38 drivers/usb/gadget/built-in.o
 .text.fastboot_flash_get_ptn
                0x0000000000000000       0x28 drivers/usb/gadget/built-in.o
 .text.fastboot_flash_get_ptn_count
                0x0000000000000000       0x10 drivers/usb/gadget/built-in.o
 .rodata.fastboot_flash_find_index.str1.1
                0x0000000000000000       0x24 drivers/usb/gadget/built-in.o
 .rodata.read_from_partition_multi.str1.1
                0x0000000000000000       0x43 drivers/usb/gadget/built-in.o
 .data          0x0000000000000000        0x0 drivers/usb/gadget/built-in.o
 .bss           0x0000000000000000        0x0 drivers/usb/gadget/built-in.o
 .bss.metrics   0x0000000000000000       0x1c drivers/usb/gadget/built-in.o
 .text          0x0000000000000000        0x0 drivers/usb/host/built-in.o
 .text.ehci_get_controller_priv
                0x0000000000000000       0x18 drivers/usb/host/built-in.o
 .text.create_int_queue
                0x0000000000000000        0x4 drivers/usb/host/built-in.o
 .text.poll_int_queue
                0x0000000000000000        0x4 drivers/usb/host/built-in.o
 .text.destroy_int_queue
                0x0000000000000000        0x4 drivers/usb/host/built-in.o
 .text.usb_phy_mode
                0x0000000000000000       0x20 drivers/usb/host/built-in.o
 .text.board_usb_phy_mode
                0x0000000000000000        0x4 drivers/usb/host/built-in.o
 .text.board_ehci_hcd_init
                0x0000000000000000        0x8 drivers/usb/host/built-in.o
 .data          0x0000000000000000        0x0 drivers/usb/host/built-in.o
 .bss           0x0000000000000000        0x0 drivers/usb/host/built-in.o
 .text          0x0000000000000000        0x0 env/built-in.o
 .text.env_flags_parse_varaccess_from_binflags
                0x0000000000000000       0x58 env/built-in.o
 .text.mmc_get_env_dev
                0x0000000000000000        0x8 env/built-in.o
 .rodata.env_flags_parse_varaccess_from_binflags.str1.1
                0x0000000000000000       0x2c env/built-in.o
 .data          0x0000000000000000        0x0 env/built-in.o
 .bss           0x0000000000000000        0x0 env/built-in.o
 .text          0x0000000000000000        0x0 fs/built-in.o
 .text.fs_uuid  0x0000000000000000       0x28 fs/built-in.o
 .text.do_fs_uuid
                0x0000000000000000       0x8c fs/built-in.o
 .text.fat_register_device
                0x0000000000000000       0x88 fs/built-in.o
 .text.file_fat_read
                0x0000000000000000       0x38 fs/built-in.o
 .text.fs_devread
                0x0000000000000000      0x230 fs/built-in.o
 .rodata.fat_register_device.str1.1
                0x0000000000000000       0x2b fs/built-in.o
 .rodata.__func__.8818
                0x0000000000000000        0xb fs/built-in.o
 .rodata.fs_devread.str1.1
                0x0000000000000000       0x98 fs/built-in.o
 .data          0x0000000000000000        0x0 fs/built-in.o
 .bss           0x0000000000000000        0x0 fs/built-in.o
 .bss.do_fat_read_at_block
                0x0000000000000000    0x10000 fs/built-in.o
 .bss.get_dentfromdir_block
                0x0000000000000000    0x10000 fs/built-in.o
 .text          0x0000000000000000        0x0 lib/built-in.o
 .text.invalidate_icache_all
                0x0000000000000000        0x4 lib/built-in.o
 .text.indent_string
                0x0000000000000000       0x30 lib/built-in.o
 .text.__efi_nesting
                0x0000000000000000       0x10 lib/built-in.o
 .text.__efi_nesting_inc
                0x0000000000000000       0x18 lib/built-in.o
 .text.__efi_nesting_dec
                0x0000000000000000       0x18 lib/built-in.o
 .text.efi_add_runtime_mmio
                0x0000000000000000       0x8c lib/built-in.o
 .text.dp_fill  0x0000000000000000       0xf8 lib/built-in.o
 .text.efi_dp_append
                0x0000000000000000       0x84 lib/built-in.o
 .text.efi_dp_from_dev
                0x0000000000000000       0xa4 lib/built-in.o
 .text.fdt_setprop_inplace_namelen_partial
                0x0000000000000000       0x54 lib/built-in.o
 .text.fdt_setprop_inplace
                0x0000000000000000       0x74 lib/built-in.o
 .text.fdt_nop_property
                0x0000000000000000       0x40 lib/built-in.o
 .text.fdt_nop_node
                0x0000000000000000       0x50 lib/built-in.o
 .text._fdt_sw_check_header
                0x0000000000000000       0x1c lib/built-in.o
 .text._fdt_grab_space
                0x0000000000000000       0x60 lib/built-in.o
 .text.fdt_create
                0x0000000000000000       0x64 lib/built-in.o
 .text.fdt_resize
                0x0000000000000000       0xbc lib/built-in.o
 .text.fdt_add_reservemap_entry
                0x0000000000000000       0x8c lib/built-in.o
 .text.fdt_finish_reservemap
                0x0000000000000000       0x1c lib/built-in.o
 .text.fdt_begin_node
                0x0000000000000000       0x64 lib/built-in.o
 .text.fdt_end_node
                0x0000000000000000       0x38 lib/built-in.o
 .text.fdt_property_placeholder
                0x0000000000000000      0x110 lib/built-in.o
 .text.fdt_property
                0x0000000000000000       0x3c lib/built-in.o
 .text.fdt_finish
                0x0000000000000000      0x100 lib/built-in.o
 .text.fdt_set_name
                0x0000000000000000       0x88 lib/built-in.o
 .text.fdt_pack
                0x0000000000000000       0x5c lib/built-in.o
 .text.fdt_create_empty_tree
                0x0000000000000000       0x74 lib/built-in.o
 .text.fdt_get_phandle
                0x0000000000000000       0x70 lib/built-in.o
 .text.fdt_get_max_phandle
                0x0000000000000000       0x74 lib/built-in.o
 .text.fdt_get_alias
                0x0000000000000000       0x28 lib/built-in.o
 .text.fdt_get_path
                0x0000000000000000      0x138 lib/built-in.o
 .text.fdt_parent_offset
                0x0000000000000000       0x30 lib/built-in.o
 .text.fdt_node_offset_by_prop_value
                0x0000000000000000       0x98 lib/built-in.o
 .text.fdt_node_offset_by_phandle
                0x0000000000000000       0x6c lib/built-in.o
 .text.fdt_stringlist_contains
                0x0000000000000000       0x7c lib/built-in.o
 .text.fdt_stringlist_search
                0x0000000000000000       0xa4 lib/built-in.o
 .text.fdt_node_check_compatible
                0x0000000000000000       0x40 lib/built-in.o
 .text.fdt_node_offset_by_compatible
                0x0000000000000000       0x74 lib/built-in.o
 .text.fdt_add_region
                0x0000000000000000       0x98 lib/built-in.o
 .text.fdt_find_regions
                0x0000000000000000      0x398 lib/built-in.o
 .text.fdt_add_alias_regions
                0x0000000000000000      0x19c lib/built-in.o
 .text.fdt_next_region
                0x0000000000000000      0x52c lib/built-in.o
 .text.fdt_first_region
                0x0000000000000000       0x48 lib/built-in.o
 .text.utf16_strcpy
                0x0000000000000000       0x18 lib/built-in.o
 .text.utf16_strdup
                0x0000000000000000       0x38 lib/built-in.o
 .text.crc7     0x0000000000000000       0x24 lib/built-in.o
 .text.crc8     0x0000000000000000       0x48 lib/built-in.o
 .text.fdtdec_get_int
                0x0000000000000000       0x34 lib/built-in.o
 .text.fdtdec_get_uint
                0x0000000000000000       0x34 lib/built-in.o
 .text.lmb_dump_all
                0x0000000000000000        0x4 lib/built-in.o
 .text.lmb_is_reserved
                0x0000000000000000       0x58 lib/built-in.o
 .text.board_lmb_reserve
                0x0000000000000000        0x4 lib/built-in.o
 .text.arch_lmb_reserve
                0x0000000000000000        0x4 lib/built-in.o
 .text.ldiv     0x0000000000000000       0x3c lib/built-in.o
 .text.byteReverse
                0x0000000000000000        0x4 lib/built-in.o
 .text.md5      0x0000000000000000       0x64 lib/built-in.o
 .text.rc4_encode
                0x0000000000000000       0xe8 lib/built-in.o
 .text.sha1_csum
                0x0000000000000000       0x3c lib/built-in.o
 .text.sha1_hmac
                0x0000000000000000      0x124 lib/built-in.o
 .text.sha1_self_test
                0x0000000000000000        0x8 lib/built-in.o
 .text.inflateInit_
                0x0000000000000000       0x10 lib/built-in.o
 .text.print_freq
                0x0000000000000000      0x1b0 lib/built-in.o
 .text.div_s64_rem
                0x0000000000000000       0xd8 lib/built-in.o
 .text.div64_u64_rem
                0x0000000000000000      0x168 lib/built-in.o
 .text.div64_u64
                0x0000000000000000      0x140 lib/built-in.o
 .text.div64_s64
                0x0000000000000000       0x5c lib/built-in.o
 .text.iter_div_u64_rem
                0x0000000000000000       0x38 lib/built-in.o
 .text.copy_from_user
                0x0000000000000000       0x10 lib/built-in.o
 .text.kmalloc  0x0000000000000000       0x38 lib/built-in.o
 .text.get_mem  0x0000000000000000       0x1c lib/built-in.o
 .text.kmem_cache_alloc
                0x0000000000000000        0xc lib/built-in.o
 .text.membuff_purge
                0x0000000000000000       0x10 lib/built-in.o
 .text.membuff_putraw
                0x0000000000000000       0xc0 lib/built-in.o
 .text.membuff_putbyte
                0x0000000000000000       0x30 lib/built-in.o
 .text.membuff_getraw
                0x0000000000000000       0x98 lib/built-in.o
 .text.membuff_getbyte
                0x0000000000000000       0x34 lib/built-in.o
 .text.membuff_peekbyte
                0x0000000000000000       0x30 lib/built-in.o
 .text.membuff_get
                0x0000000000000000       0x88 lib/built-in.o
 .text.membuff_put
                0x0000000000000000       0x6c lib/built-in.o
 .text.membuff_isempty
                0x0000000000000000       0x18 lib/built-in.o
 .text.membuff_avail
                0x0000000000000000       0x54 lib/built-in.o
 .text.membuff_size
                0x0000000000000000        0xc lib/built-in.o
 .text.membuff_makecontig
                0x0000000000000000       0x80 lib/built-in.o
 .text.membuff_free
                0x0000000000000000       0x30 lib/built-in.o
 .text.membuff_readline
                0x0000000000000000       0xb0 lib/built-in.o
 .text.membuff_extend_by
                0x0000000000000000       0xc4 lib/built-in.o
 .text.membuff_init
                0x0000000000000000       0x18 lib/built-in.o
 .text.membuff_new
                0x0000000000000000       0x38 lib/built-in.o
 .text.membuff_uninit
                0x0000000000000000       0x18 lib/built-in.o
 .text.membuff_dispose
                0x0000000000000000       0x24 lib/built-in.o
 .text.strchrnul
                0x0000000000000000       0x20 lib/built-in.o
 .text.strlcpy  0x0000000000000000       0x50 lib/built-in.o
 .text.strcspn  0x0000000000000000       0x40 lib/built-in.o
 .text.strspn   0x0000000000000000       0x3c lib/built-in.o
 .text.strtok   0x0000000000000000       0x74 lib/built-in.o
 .text.strswab  0x0000000000000000       0x48 lib/built-in.o
 .text.memscan  0x0000000000000000       0x28 lib/built-in.o
 .text.memchr_inv
                0x0000000000000000      0x128 lib/built-in.o
 .text.table_compute_checksum
                0x0000000000000000       0x2c lib/built-in.o
 .text.get_ticks
                0x0000000000000000       0x3c lib/built-in.o
 .text.timer_init
                0x0000000000000000        0x8 lib/built-in.o
 .text.get_timer
                0x0000000000000000       0x18 lib/built-in.o
 .text.__udelay
                0x0000000000000000       0xb8 lib/built-in.o
 .text.vsnprintf
                0x0000000000000000        0x4 lib/built-in.o
 .text.scnprintf
                0x0000000000000000       0x28 lib/built-in.o
 .text.__assert_fail
                0x0000000000000000       0x14 lib/built-in.o
 .text.print_grouped_ull
                0x0000000000000000       0x8c lib/built-in.o
 .text.str2off  0x0000000000000000       0x3c lib/built-in.o
 .text.str2long
                0x0000000000000000       0x3c lib/built-in.o
 .text.panic_str
                0x0000000000000000        0xc lib/built-in.o
 .text.strmhz   0x0000000000000000       0x64 lib/built-in.o
 .rodata.indent_string.str1.1
                0x0000000000000000       0x15 lib/built-in.o
 .rodata.fdt_create_empty_tree.str1.1
                0x0000000000000000        0x1 lib/built-in.o
 .rodata.fdt_get_phandle.str1.1
                0x0000000000000000       0x16 lib/built-in.o
 .rodata.fdt_node_check_compatible.str1.1
                0x0000000000000000        0xb lib/built-in.o
 .rodata.fdt_add_alias_regions.str1.1
                0x0000000000000000        0x8 lib/built-in.o
 .rodata.crc7_syndrome_table
                0x0000000000000000      0x100 lib/built-in.o
 .rodata.sha1_der_prefix
                0x0000000000000000        0xf lib/built-in.o
 .rodata.sha256_der_prefix
                0x0000000000000000       0x13 lib/built-in.o
 .rodata.z_errmsg
                0x0000000000000000       0x28 lib/built-in.o
 .rodata.names.8982
                0x0000000000000000        0x3 lib/built-in.o
 .rodata.__assert_fail.str1.1
                0x0000000000000000       0x22 lib/built-in.o
 .rodata.print_grouped_ull.str1.1
                0x0000000000000000        0xb lib/built-in.o
 .rodata.strmhz.str1.1
                0x0000000000000000        0xb lib/built-in.o
 .data          0x0000000000000000        0x0 lib/built-in.o
 .data.cur      0x0000000000000000        0x4 lib/built-in.o
 .data.current  0x0000000000000000        0x4 lib/built-in.o
 .bss           0x0000000000000000        0x0 lib/built-in.o
 .bss.nesting_level
                0x0000000000000000        0x4 lib/built-in.o
 .bss.___strtok
                0x0000000000000000        0x4 lib/built-in.o
 .text          0x0000000000000000        0x0 net/built-in.o
 .text.add_ip_checksums
                0x0000000000000000       0x3c net/built-in.o
 .text.eth_is_active
                0x0000000000000000       0x18 net/built-in.o
 .text.net_get_udp_handler
                0x0000000000000000       0x10 net/built-in.o
 .text.net_set_arp_handler
                0x0000000000000000       0x20 net/built-in.o
 .text.random_port
                0x0000000000000000       0x18 net/built-in.o
 .text.vlan_to_string
                0x0000000000000000       0x44 net/built-in.o
 .text.env_get_vlan
                0x0000000000000000       0x10 net/built-in.o
 .rodata.vlan_to_string.str1.1
                0x0000000000000000        0x8 net/built-in.o
 .data          0x0000000000000000        0x0 net/built-in.o
 .data.tftp_timeout_ms
                0x0000000000000000        0x4 net/built-in.o
 .bss           0x0000000000000000        0x0 net/built-in.o
 .bss.net_busy_flag
                0x0000000000000000        0x4 net/built-in.o
 .text          0x0000000000000000        0x0 test/dm/built-in.o
 .data          0x0000000000000000        0x0 test/dm/built-in.o
 .bss           0x0000000000000000        0x0 test/dm/built-in.o
 .text          0x0000000000000000        0x0 arch/arm/lib/eabi_compat.o
 .data          0x0000000000000000        0x0 arch/arm/lib/eabi_compat.o
 .bss           0x0000000000000000        0x0 arch/arm/lib/eabi_compat.o
 .text.raise    0x0000000000000000       0x1c arch/arm/lib/eabi_compat.o
 .text.__aeabi_unwind_cpp_pr0
                0x0000000000000000        0x4 arch/arm/lib/eabi_compat.o
 .text.__aeabi_unwind_cpp_pr1
                0x0000000000000000        0x4 arch/arm/lib/eabi_compat.o
 .text.__aeabi_memcpy
                0x0000000000000000        0x4 arch/arm/lib/eabi_compat.o
 .text.__aeabi_memset
                0x0000000000000000       0x10 arch/arm/lib/eabi_compat.o
 .rodata.raise.str1.1
                0x0000000000000000       0x1b arch/arm/lib/eabi_compat.o
 .debug_info    0x0000000000000000      0xcdb arch/arm/lib/eabi_compat.o
 .debug_abbrev  0x0000000000000000      0x252 arch/arm/lib/eabi_compat.o
 .debug_loc     0x0000000000000000      0x108 arch/arm/lib/eabi_compat.o
 .debug_aranges
                0x0000000000000000       0x38 arch/arm/lib/eabi_compat.o
 .debug_ranges  0x0000000000000000       0x28 arch/arm/lib/eabi_compat.o
 .debug_line    0x0000000000000000      0x49b arch/arm/lib/eabi_compat.o
 .debug_str     0x0000000000000000      0xb87 arch/arm/lib/eabi_compat.o
 .comment       0x0000000000000000       0x12 arch/arm/lib/eabi_compat.o
 .note.GNU-stack
                0x0000000000000000        0x0 arch/arm/lib/eabi_compat.o
 .debug_frame   0x0000000000000000       0x68 arch/arm/lib/eabi_compat.o
 .ARM.attributes
                0x0000000000000000       0x2d arch/arm/lib/eabi_compat.o
 .text          0x0000000000000000        0x0 arch/arm/lib/lib.a(lib1funcs.o)
 .data          0x0000000000000000        0x0 arch/arm/lib/lib.a(lib1funcs.o)
 .bss           0x0000000000000000        0x0 arch/arm/lib/lib.a(lib1funcs.o)
 .text.__umodsi3
                0x0000000000000000       0xa0 arch/arm/lib/lib.a(lib1funcs.o)
 .text.__modsi3
                0x0000000000000000       0xb8 arch/arm/lib/lib.a(lib1funcs.o)
 .text          0x0000000000000000        0x0 arch/arm/lib/lib.a(uldivmod.o)
 .data          0x0000000000000000        0x0 arch/arm/lib/lib.a(uldivmod.o)
 .bss           0x0000000000000000        0x0 arch/arm/lib/lib.a(uldivmod.o)
 .text          0x0000000000000000        0x0 arch/arm/lib/lib.a(div0.o)
 .data          0x0000000000000000        0x0 arch/arm/lib/lib.a(div0.o)
 .bss           0x0000000000000000        0x0 arch/arm/lib/lib.a(div0.o)

Memory Configuration

Name             Origin             Length             Attributes
*default*        0x0000000000000000 0xffffffffffffffff

Linker script and memory map

Address of section .text set to 0x87800000

/DISCARD/
 *(.rel._secure*)
                0x0000000000000000                . = 0x0
                0x0000000000000000                . = ALIGN (0x4)

.text           0x0000000087800000    0x52054
 *(.__image_copy_start)
 .__image_copy_start
                0x0000000087800000        0x0 arch/arm/lib/built-in.o
                0x0000000087800000                __image_copy_start
 *(.vectors)
 .vectors       0x0000000087800000      0x2e8 arch/arm/lib/built-in.o
                0x0000000087800000                _start
                0x0000000087800020                _undefined_instruction
                0x0000000087800024                _software_interrupt
                0x0000000087800028                _prefetch_abort
                0x000000008780002c                _data_abort
                0x0000000087800030                _not_used
                0x0000000087800034                _irq
                0x0000000087800038                _fiq
                0x0000000087800040                IRQ_STACK_START_IN
 arch/arm/cpu/armv7/start.o(.text*)
 .text          0x00000000878002e8       0xb0 arch/arm/cpu/armv7/start.o
                0x00000000878002e8                reset
                0x00000000878002ec                save_boot_params_ret
                0x0000000087800328                c_runtime_cpu_setup
                0x0000000087800338                save_boot_params
                0x000000008780033c                cpu_init_cp15
                0x0000000087800390                cpu_init_crit
 *(.text*)
 .text          0x0000000087800398      0x148 arch/arm/cpu/armv7/built-in.o
                0x0000000087800398                __v7_flush_dcache_all
                0x000000008780042c                v7_flush_dcache_all
                0x000000008780043c                __v7_invalidate_dcache_all
                0x00000000878004d0                v7_invalidate_dcache_all
 .text.invalidate_icache_all
                0x00000000878004e0       0x18 arch/arm/cpu/armv7/built-in.o
                0x00000000878004e0                invalidate_icache_all
 .text.v7_outer_cache_enable
                0x00000000878004f8        0x4 arch/arm/cpu/armv7/built-in.o
                0x00000000878004f8                v7_outer_cache_enable
 .text.v7_outer_cache_disable
                0x00000000878004fc        0x4 arch/arm/cpu/armv7/built-in.o
                0x00000000878004fc                v7_outer_cache_disable
 .text.v7_outer_cache_flush_all
                0x0000000087800500        0x4 arch/arm/cpu/armv7/built-in.o
                0x0000000087800500                v7_outer_cache_flush_all
 .text.flush_dcache_all
                0x0000000087800504       0x10 arch/arm/cpu/armv7/built-in.o
                0x0000000087800504                flush_dcache_all
 .text.v7_outer_cache_inval_all
                0x0000000087800514        0x4 arch/arm/cpu/armv7/built-in.o
                0x0000000087800514                v7_outer_cache_inval_all
 .text.invalidate_dcache_all
                0x0000000087800518       0x10 arch/arm/cpu/armv7/built-in.o
                0x0000000087800518                invalidate_dcache_all
 .text.arm_init_before_mmu
                0x0000000087800528       0x28 arch/arm/cpu/armv7/built-in.o
                0x0000000087800528                arm_init_before_mmu
 .text.v7_outer_cache_flush_range
                0x0000000087800550        0x4 arch/arm/cpu/armv7/built-in.o
                0x0000000087800550                v7_outer_cache_flush_range
 .text.flush_dcache_range
                0x0000000087800554       0x54 arch/arm/cpu/armv7/built-in.o
                0x0000000087800554                flush_dcache_range
 .text.mmu_page_table_flush
                0x00000000878005a8       0x24 arch/arm/cpu/armv7/built-in.o
                0x00000000878005a8                mmu_page_table_flush
 .text.v7_outer_cache_inval_range
                0x00000000878005cc        0x4 arch/arm/cpu/armv7/built-in.o
                0x00000000878005cc                v7_outer_cache_inval_range
 .text.invalidate_dcache_range
                0x00000000878005d0       0x64 arch/arm/cpu/armv7/built-in.o
                0x00000000878005d0                invalidate_dcache_range
 .text.cpu_cache_initialization
                0x0000000087800634        0x4 arch/arm/cpu/armv7/built-in.o
                0x0000000087800634                cpu_cache_initialization
 .text.cleanup_before_linux_select
                0x0000000087800638       0x4c arch/arm/cpu/armv7/built-in.o
                0x0000000087800638                cleanup_before_linux_select
 .text.cleanup_before_linux
                0x0000000087800684        0x8 arch/arm/cpu/armv7/built-in.o
                0x0000000087800684                cleanup_before_linux
 .text.lowlevel_init
                0x000000008780068c       0x24 arch/arm/cpu/armv7/built-in.o
                0x000000008780068c                lowlevel_init
 .text.get_gicd_base_address
                0x00000000878006b0       0x34 arch/arm/cpu/armv7/built-in.o
 .text.protect_secure_section
                0x00000000878006e4        0x4 arch/arm/cpu/armv7/built-in.o
                0x00000000878006e4                protect_secure_section
 .text.psci_board_init
                0x00000000878006e8        0x4 arch/arm/cpu/armv7/built-in.o
                0x00000000878006e8                psci_board_init
 .text.armv7_init_nonsec
                0x00000000878006ec       0xd0 arch/arm/cpu/armv7/built-in.o
                0x00000000878006ec                armv7_init_nonsec
 .text.armv7_apply_memory_carveout
                0x00000000878007bc        0x8 arch/arm/cpu/armv7/built-in.o
                0x00000000878007bc                armv7_apply_memory_carveout
 .text.psci_update_dt
                0x00000000878007c4       0x20 arch/arm/cpu/armv7/built-in.o
                0x00000000878007c4                psci_update_dt
 *fill*         0x00000000878007e4       0x1c 
 .text          0x0000000087800800      0x528 arch/arm/lib/built-in.o
                0x0000000087800800                _main
                0x00000000878008a0                memset
                0x000000008780097c                memcpy
 .text.setjmp   0x0000000087800d28       0x10 arch/arm/lib/built-in.o
                0x0000000087800d28                setjmp
 .text.longjmp  0x0000000087800d38       0x1c arch/arm/lib/built-in.o
                0x0000000087800d38                longjmp
 .text.relocate_vectors
                0x0000000087800d54       0x70 arch/arm/lib/built-in.o
                0x0000000087800d54                relocate_vectors
                0x0000000087800d60                relocate_code
 .text.arch_fixup_fdt
                0x0000000087800dc4       0x60 arch/arm/lib/built-in.o
                0x0000000087800dc4                arch_fixup_fdt
 .text.arch_lmb_reserve
                0x0000000087800e24       0x3c arch/arm/lib/built-in.o
                0x0000000087800e24                arch_lmb_reserve
 .text.board_quiesce_devices
                0x0000000087800e60        0x4 arch/arm/lib/built-in.o
                0x0000000087800e60                board_quiesce_devices
 .text.setup_board_tags
                0x0000000087800e64        0x4 arch/arm/lib/built-in.o
                0x0000000087800e64                setup_board_tags
 .text.boot_prep_linux
                0x0000000087800e68      0x1b8 arch/arm/lib/built-in.o
 .text.armv7_boot_nonsec_default
                0x0000000087801020        0x8 arch/arm/lib/built-in.o
                0x0000000087801020                armv7_boot_nonsec_default
 .text.armv7_boot_nonsec
                0x0000000087801028       0x5c arch/arm/lib/built-in.o
                0x0000000087801028                armv7_boot_nonsec
 .text.boot_jump_linux
                0x0000000087801084      0x108 arch/arm/lib/built-in.o
 .text.do_bootm_linux
                0x000000008780118c       0x58 arch/arm/lib/built-in.o
                0x000000008780118c                do_bootm_linux
 .text.boot_prep_vxworks
                0x00000000878011e4       0x50 arch/arm/lib/built-in.o
                0x00000000878011e4                boot_prep_vxworks
 .text.boot_jump_vxworks
                0x0000000087801234        0xc arch/arm/lib/built-in.o
                0x0000000087801234                boot_jump_vxworks
 .text.bootz_setup
                0x0000000087801240       0x7c arch/arm/lib/built-in.o
                0x0000000087801240                bootz_setup
 .text.arch_reserve_stacks
                0x00000000878012bc       0x1c arch/arm/lib/built-in.o
                0x00000000878012bc                arch_reserve_stacks
 .text.interrupt_init
                0x00000000878012d8       0x1c arch/arm/lib/built-in.o
                0x00000000878012d8                interrupt_init
 .text.enable_interrupts
                0x00000000878012f4        0x4 arch/arm/lib/built-in.o
                0x00000000878012f4                enable_interrupts
 .text.disable_interrupts
                0x00000000878012f8        0x8 arch/arm/lib/built-in.o
                0x00000000878012f8                disable_interrupts
 .text.bad_mode
                0x0000000087801300       0x10 arch/arm/lib/built-in.o
                0x0000000087801300                bad_mode
 .text.show_regs
                0x0000000087801310      0x174 arch/arm/lib/built-in.o
                0x0000000087801310                show_regs
 .text.do_undefined_instruction
                0x0000000087801484       0x30 arch/arm/lib/built-in.o
                0x0000000087801484                do_undefined_instruction
 .text.do_software_interrupt
                0x00000000878014b4       0x30 arch/arm/lib/built-in.o
                0x00000000878014b4                do_software_interrupt
 .text.do_prefetch_abort
                0x00000000878014e4       0x30 arch/arm/lib/built-in.o
                0x00000000878014e4                do_prefetch_abort
 .text.do_data_abort
                0x0000000087801514       0x30 arch/arm/lib/built-in.o
                0x0000000087801514                do_data_abort
 .text.do_not_used
                0x0000000087801544       0x30 arch/arm/lib/built-in.o
                0x0000000087801544                do_not_used
 .text.do_fiq   0x0000000087801574       0x30 arch/arm/lib/built-in.o
                0x0000000087801574                do_fiq
 .text.do_irq   0x00000000878015a4       0x30 arch/arm/lib/built-in.o
                0x00000000878015a4                do_irq
 .text.do_reset
                0x00000000878015d4       0x30 arch/arm/lib/built-in.o
                0x00000000878015d4                do_reset
 .text.flush_cache
                0x0000000087801604        0x8 arch/arm/lib/built-in.o
                0x0000000087801604                flush_cache
 .text.check_cache_range
                0x000000008780160c       0x34 arch/arm/lib/built-in.o
                0x000000008780160c                check_cache_range
 .text.cache_disable
                0x0000000087801640       0x4c arch/arm/lib/built-in.o
 .text.arm_init_domains
                0x000000008780168c        0x4 arch/arm/lib/built-in.o
                0x000000008780168c                arm_init_domains
 .text.set_section_dcache
                0x0000000087801690       0x14 arch/arm/lib/built-in.o
                0x0000000087801690                set_section_dcache
 .text.mmu_set_region_dcache_behaviour
                0x00000000878016a4       0x58 arch/arm/lib/built-in.o
                0x00000000878016a4                mmu_set_region_dcache_behaviour
 .text.dram_bank_mmu_setup
                0x00000000878016fc       0x40 arch/arm/lib/built-in.o
                0x00000000878016fc                dram_bank_mmu_setup
 .text.icache_enable
                0x000000008780173c       0x14 arch/arm/lib/built-in.o
                0x000000008780173c                icache_enable
 .text.icache_disable
                0x0000000087801750        0x8 arch/arm/lib/built-in.o
                0x0000000087801750                icache_disable
 .text.icache_status
                0x0000000087801758        0xc arch/arm/lib/built-in.o
                0x0000000087801758                icache_status
 .text.dcache_enable
                0x0000000087801764       0x80 arch/arm/lib/built-in.o
                0x0000000087801764                dcache_enable
 .text.dcache_disable
                0x00000000878017e4        0x8 arch/arm/lib/built-in.o
                0x00000000878017e4                dcache_disable
 .text.dcache_status
                0x00000000878017ec        0xc arch/arm/lib/built-in.o
                0x00000000878017ec                dcache_status
 .text.fdt_psci
                0x00000000878017f8      0x1c0 arch/arm/lib/built-in.o
                0x00000000878017f8                fdt_psci
 .text.imx_iomux_v3_setup_pad
                0x00000000878019b8      0x104 arch/arm/mach-imx/built-in.o
                0x00000000878019b8                imx_iomux_v3_setup_pad
 .text.imx_iomux_v3_setup_multiple_pads
                0x0000000087801abc       0x28 arch/arm/mach-imx/built-in.o
                0x0000000087801abc                imx_iomux_v3_setup_multiple_pads
 .text.mxs_wait_mask_set
                0x0000000087801ae4       0x40 arch/arm/mach-imx/built-in.o
                0x0000000087801ae4                mxs_wait_mask_set
 .text.mxs_wait_mask_clr
                0x0000000087801b24       0x40 arch/arm/mach-imx/built-in.o
                0x0000000087801b24                mxs_wait_mask_clr
 .text.mxs_reset_block
                0x0000000087801b64       0xa4 arch/arm/mach-imx/built-in.o
                0x0000000087801b64                mxs_reset_block
 .text.imx_sec_init
                0x0000000087801c08        0x4 arch/arm/mach-imx/built-in.o
                0x0000000087801c08                imx_sec_init
 .text.board_lmb_reserve
                0x0000000087801c0c       0x3c arch/arm/mach-imx/built-in.o
                0x0000000087801c0c                board_lmb_reserve
 .text.get_imx_type
                0x0000000087801c48       0x20 arch/arm/mach-imx/built-in.o
                0x0000000087801c48                get_imx_type
 .text.cpu_eth_init
                0x0000000087801c68        0x4 arch/arm/mach-imx/built-in.o
                0x0000000087801c68                cpu_eth_init
 .text.cpu_mmc_init
                0x0000000087801c6c        0x4 arch/arm/mach-imx/built-in.o
                0x0000000087801c6c                cpu_mmc_init
 .text.arch_preboot_os
                0x0000000087801c70        0x4 arch/arm/mach-imx/built-in.o
                0x0000000087801c70                arch_preboot_os
 .text.get_cpu_speed_grade_hz
                0x0000000087801c74      0x1e4 arch/arm/mach-imx/built-in.o
                0x0000000087801c74                get_cpu_speed_grade_hz
 .text.get_cpu_temp_grade
                0x0000000087801e58       0x6c arch/arm/mach-imx/built-in.o
                0x0000000087801e58                get_cpu_temp_grade
 .text.print_cpuinfo
                0x0000000087801ec4      0x26c arch/arm/mach-imx/built-in.o
                0x0000000087801ec4                print_cpuinfo
 .text.get_boot_device
                0x0000000087802130       0x9c arch/arm/mach-imx/built-in.o
                0x0000000087802130                get_boot_device
 .text.force_idle_bus
                0x00000000878021cc      0x1c4 arch/arm/mach-imx/built-in.o
                0x00000000878021cc                force_idle_bus
 .text.setup_i2c
                0x0000000087802390       0xdc arch/arm/mach-imx/built-in.o
                0x0000000087802390                setup_i2c
 .text.board_mmc_get_env_dev
                0x000000008780246c        0x8 arch/arm/mach-imx/built-in.o
                0x000000008780246c                board_mmc_get_env_dev
 .text.mmc_get_env_dev
                0x0000000087802474       0x30 arch/arm/mach-imx/built-in.o
                0x0000000087802474                mmc_get_env_dev
 .text.enable_caches
                0x00000000878024a4       0x60 arch/arm/mach-imx/built-in.o
                0x00000000878024a4                enable_caches
 .text.init_aips
                0x0000000087802504      0x124 arch/arm/mach-imx/built-in.o
                0x0000000087802504                init_aips
 .text.imx_wdog_disable_powerdown
                0x0000000087802628       0xa8 arch/arm/mach-imx/built-in.o
                0x0000000087802628                imx_wdog_disable_powerdown
 .text.boot_mode_apply
                0x00000000878026d0       0x30 arch/arm/mach-imx/built-in.o
                0x00000000878026d0                boot_mode_apply
 .text.imx_get_mac_from_fuse
                0x0000000087802700      0x118 arch/arm/mach-imx/built-in.o
                0x0000000087802700                imx_get_mac_from_fuse
 .text.imx_rdc_check_permission
                0x0000000087802818       0x38 arch/arm/mach-imx/built-in.o
                0x0000000087802818                imx_rdc_check_permission
 .text.imx_rdc_sema_lock
                0x0000000087802850       0x78 arch/arm/mach-imx/built-in.o
                0x0000000087802850                imx_rdc_sema_lock
 .text.imx_rdc_sema_unlock
                0x00000000878028c8       0x7c arch/arm/mach-imx/built-in.o
                0x00000000878028c8                imx_rdc_sema_unlock
 .text.imx_rdc_setup_peri
                0x0000000087802944       0x54 arch/arm/mach-imx/built-in.o
                0x0000000087802944                imx_rdc_setup_peri
 .text.imx_rdc_setup_peripherals
                0x0000000087802998       0x38 arch/arm/mach-imx/built-in.o
                0x0000000087802998                imx_rdc_setup_peripherals
 .text.arch_auxiliary_core_up
                0x00000000878029d0       0x48 arch/arm/mach-imx/built-in.o
                0x00000000878029d0                arch_auxiliary_core_up
 .text.arch_auxiliary_core_check_up
                0x0000000087802a18       0x1c arch/arm/mach-imx/built-in.o
                0x0000000087802a18                arch_auxiliary_core_check_up
 .text.do_bootaux
                0x0000000087802a34       0x94 arch/arm/mach-imx/built-in.o
 .text.timer_init
                0x0000000087802ac8       0x48 arch/arm/mach-imx/built-in.o
                0x0000000087802ac8                timer_init
 .text.get_ticks
                0x0000000087802b10       0x18 arch/arm/mach-imx/built-in.o
                0x0000000087802b10                get_ticks
 .text.get_timer_masked
                0x0000000087802b28       0x58 arch/arm/mach-imx/built-in.o
                0x0000000087802b28                get_timer_masked
 .text.get_timer
                0x0000000087802b80       0x14 arch/arm/mach-imx/built-in.o
                0x0000000087802b80                get_timer
 *fill*         0x0000000087802b94        0x4 
 .text.__udelay
                0x0000000087802b98       0xb8 arch/arm/mach-imx/built-in.o
                0x0000000087802b98                __udelay
 .text.get_tbclk
                0x0000000087802c50        0x8 arch/arm/mach-imx/built-in.o
                0x0000000087802c50                get_tbclk
 .text.create_usage
                0x0000000087802c58       0xa4 arch/arm/mach-imx/built-in.o
 .text.do_boot_mode
                0x0000000087802cfc       0xf0 arch/arm/mach-imx/built-in.o
 .text.add_board_boot_modes
                0x0000000087802dec       0x60 arch/arm/mach-imx/built-in.o
                0x0000000087802dec                add_board_boot_modes
 .text.get_cpu_rev
                0x0000000087802e4c       0x38 arch/arm/mach-imx/built-in.o
                0x0000000087802e4c                get_cpu_rev
 .text.ft_system_setup
                0x0000000087802e84      0x108 arch/arm/mach-imx/built-in.o
                0x0000000087802e84                ft_system_setup
 .text.is_usb_boot
                0x0000000087802f8c        0xc arch/arm/mach-imx/built-in.o
                0x0000000087802f8c                is_usb_boot
 .text.arch_cpu_init
                0x0000000087802f98      0x16c arch/arm/mach-imx/built-in.o
                0x0000000087802f98                arch_cpu_init
 .text.arch_misc_init
                0x0000000087803104        0x8 arch/arm/mach-imx/built-in.o
                0x0000000087803104                arch_misc_init
 .text.set_wdog_reset
                0x000000008780310c       0x24 arch/arm/mach-imx/built-in.o
                0x000000008780310c                set_wdog_reset
 .text.s_init   0x0000000087803130        0x4 arch/arm/mach-imx/built-in.o
                0x0000000087803130                s_init
 .text.reset_misc
                0x0000000087803134        0x4 arch/arm/mach-imx/built-in.o
                0x0000000087803134                reset_misc
 .text.reset_cpu
                0x0000000087803138       0x18 arch/arm/mach-imx/built-in.o
                0x0000000087803138                reset_cpu
 .text.enable_pll_enet
                0x0000000087803150       0x8c arch/arm/mach-imx/built-in.o
 .text.enable_usboh3_clk.part.0
                0x00000000878031dc       0x50 arch/arm/mach-imx/built-in.o
 .text.decode_pll.constprop.3
                0x000000008780322c      0x134 arch/arm/mach-imx/built-in.o
 .text.mxc_get_pll_ddr_derive
                0x0000000087803360       0x5c arch/arm/mach-imx/built-in.o
 .text.enable_ocotp_clk
                0x00000000878033bc       0x10 arch/arm/mach-imx/built-in.o
                0x00000000878033bc                enable_ocotp_clk
 .text.enable_thermal_clk
                0x00000000878033cc        0x8 arch/arm/mach-imx/built-in.o
                0x00000000878033cc                enable_thermal_clk
 .text.enable_usboh3_clk
                0x00000000878033d4       0x48 arch/arm/mach-imx/built-in.o
                0x00000000878033d4                enable_usboh3_clk
 .text.get_root_clk
                0x000000008780341c      0x418 arch/arm/mach-imx/built-in.o
                0x000000008780341c                get_root_clk
 .text.get_ahb_clk
                0x0000000087803834        0x8 arch/arm/mach-imx/built-in.o
                0x0000000087803834                get_ahb_clk
 .text.imx_get_uartclk
                0x000000008780383c        0x8 arch/arm/mach-imx/built-in.o
                0x000000008780383c                imx_get_uartclk
 .text.imx_get_fecclk
                0x0000000087803844        0x8 arch/arm/mach-imx/built-in.o
                0x0000000087803844                imx_get_fecclk
 .text.mxc_get_clock
                0x000000008780384c       0xf0 arch/arm/mach-imx/built-in.o
                0x000000008780384c                mxc_get_clock
 .text.get_clocks
                0x000000008780393c       0x1c arch/arm/mach-imx/built-in.o
                0x000000008780393c                get_clocks
 .text.do_mx7_showclocks
                0x0000000087803958      0x15c arch/arm/mach-imx/built-in.o
                0x0000000087803958                do_mx7_showclocks
 .text.enable_i2c_clk
                0x0000000087803ab4       0x5c arch/arm/mach-imx/built-in.o
                0x0000000087803ab4                enable_i2c_clk
 .text.mxs_set_lcdclk
                0x0000000087803b10      0x224 arch/arm/mach-imx/built-in.o
                0x0000000087803b10                mxs_set_lcdclk
 .text.set_clk_enet
                0x0000000087803d34       0xc4 arch/arm/mach-imx/built-in.o
                0x0000000087803d34                set_clk_enet
 .text.clock_init
                0x0000000087803df8      0x2f8 arch/arm/mach-imx/built-in.o
                0x0000000087803df8                clock_init
 .text.select   0x00000000878040f0       0x30 arch/arm/mach-imx/built-in.o
 .text.clock_set_src
                0x0000000087804120       0xa4 arch/arm/mach-imx/built-in.o
                0x0000000087804120                clock_set_src
 .text.clock_get_src
                0x00000000878041c4       0x64 arch/arm/mach-imx/built-in.o
                0x00000000878041c4                clock_get_src
 .text.clock_get_prediv
                0x0000000087804228       0x7c arch/arm/mach-imx/built-in.o
                0x0000000087804228                clock_get_prediv
 .text.clock_get_postdiv
                0x00000000878042a4       0x50 arch/arm/mach-imx/built-in.o
                0x00000000878042a4                clock_get_postdiv
 .text.clock_get_autopostdiv
                0x00000000878042f4       0x90 arch/arm/mach-imx/built-in.o
                0x00000000878042f4                clock_get_autopostdiv
 .text.clock_set_target_val
                0x0000000087804384       0x24 arch/arm/mach-imx/built-in.o
                0x0000000087804384                clock_set_target_val
 .text.clock_root_enabled
                0x00000000878043a8       0x40 arch/arm/mach-imx/built-in.o
                0x00000000878043a8                clock_root_enabled
 .text.clock_enable
                0x00000000878043e8       0x44 arch/arm/mach-imx/built-in.o
                0x00000000878043e8                clock_enable
 .text.do_enable_parallel_lcd
                0x000000008780442c       0x40 board/technexion/pico-imx7d/built-in.o
                0x000000008780442c                do_enable_parallel_lcd
 .text.dram_init
                0x000000008780446c       0x58 board/technexion/pico-imx7d/built-in.o
                0x000000008780446c                dram_init
 .text.board_video_skip
                0x00000000878044c4       0xe8 board/technexion/pico-imx7d/built-in.o
                0x00000000878044c4                board_video_skip
 .text.board_mmc_getcd
                0x00000000878045ac       0x4c board/technexion/pico-imx7d/built-in.o
                0x00000000878045ac                board_mmc_getcd
 .text.board_mmc_init
                0x00000000878045f8      0x11c board/technexion/pico-imx7d/built-in.o
                0x00000000878045f8                board_mmc_init
 .text.check_mmc_autodetect
                0x0000000087804714       0x38 board/technexion/pico-imx7d/built-in.o
                0x0000000087804714                check_mmc_autodetect
 .text.board_late_mmc_init
                0x000000008780474c       0x60 board/technexion/pico-imx7d/built-in.o
                0x000000008780474c                board_late_mmc_init
 .text.board_eth_init
                0x00000000878047ac       0x74 board/technexion/pico-imx7d/built-in.o
                0x00000000878047ac                board_eth_init
 .text.board_phy_config
                0x0000000087804820      0x128 board/technexion/pico-imx7d/built-in.o
                0x0000000087804820                board_phy_config
 .text.board_early_init_f
                0x0000000087804948       0x6c board/technexion/pico-imx7d/built-in.o
                0x0000000087804948                board_early_init_f
 .text.board_init
                0x00000000878049b4       0xa0 board/technexion/pico-imx7d/built-in.o
                0x00000000878049b4                board_init
 .text.power_init_board
                0x0000000087804a54      0x108 board/technexion/pico-imx7d/built-in.o
                0x0000000087804a54                power_init_board
 .text.board_late_init
                0x0000000087804b5c       0x38 board/technexion/pico-imx7d/built-in.o
                0x0000000087804b5c                board_late_init
 .text.get_board_rev
                0x0000000087804b94        0x4 board/technexion/pico-imx7d/built-in.o
                0x0000000087804b94                get_board_rev
 .text.checkboard
                0x0000000087804b98       0x24 board/technexion/pico-imx7d/built-in.o
                0x0000000087804b98                checkboard
 .text.ft_board_setup
                0x0000000087804bbc        0x8 board/technexion/pico-imx7d/built-in.o
                0x0000000087804bbc                ft_board_setup
 .text.board_usb_phy_mode
                0x0000000087804bc4        0x8 board/technexion/pico-imx7d/built-in.o
                0x0000000087804bc4                board_usb_phy_mode
 .text.board_ehci_hcd_init
                0x0000000087804bcc       0x5c board/technexion/pico-imx7d/built-in.o
                0x0000000087804bcc                board_ehci_hcd_init
 .text.do_go_exec
                0x0000000087804c28       0x10 cmd/built-in.o
                0x0000000087804c28                do_go_exec
 .text.do_go    0x0000000087804c38       0x6c cmd/built-in.o
 .text.do_bootm
                0x0000000087804ca4      0x108 cmd/built-in.o
                0x0000000087804ca4                do_bootm
 .text.do_bootd
                0x0000000087804dac       0x20 cmd/built-in.o
                0x0000000087804dac                do_bootd
 .text.image_info
                0x0000000087804dcc      0x11c cmd/built-in.o
 .text.do_iminfo
                0x0000000087804ee8       0x54 cmd/built-in.o
 .text.bootm_maybe_autostart
                0x0000000087804f3c       0x78 cmd/built-in.o
                0x0000000087804f3c                bootm_maybe_autostart
 .text.do_help  0x0000000087804fb4       0x44 cmd/built-in.o
 .text.do_version
                0x0000000087804ff8       0x40 cmd/built-in.o
 .text.blk_common_cmd
                0x0000000087805038      0x310 cmd/built-in.o
                0x0000000087805038                blk_common_cmd
 .text.source   0x0000000087805348      0x1c4 cmd/built-in.o
                0x0000000087805348                source
 .text.do_source
                0x000000008780550c       0x78 cmd/built-in.o
 .text.print_num
                0x0000000087805584       0x14 cmd/built-in.o
 .text.do_bdinfo
                0x0000000087805598      0x1d0 cmd/built-in.o
 .text.do_bmp   0x0000000087805768       0x58 cmd/built-in.o
 .text.do_bmp_info
                0x00000000878057c0      0x10c cmd/built-in.o
 .text.bmp_display
                0x00000000878058cc       0x50 cmd/built-in.o
                0x00000000878058cc                bmp_display
 .text.do_bmp_display
                0x000000008780591c       0xb8 cmd/built-in.o
 .text.efi_init_obj_list
                0x00000000878059d4       0x38 cmd/built-in.o
 .text.do_bootefi_exec
                0x0000000087805a0c      0x434 cmd/built-in.o
 .text.do_bootefi
                0x0000000087805e40      0x144 cmd/built-in.o
 .text.efi_set_bootdev
                0x0000000087805f84      0x11c cmd/built-in.o
                0x0000000087805f84                efi_set_bootdev
 .text.do_bootz
                0x00000000878060a0       0xfc cmd/built-in.o
                0x00000000878060a0                do_bootz
 .text.parse_argv
                0x000000008780619c       0x64 cmd/built-in.o
 .text.do_icache
                0x0000000087806200       0x88 cmd/built-in.o
 .text.do_dcache
                0x0000000087806288       0x88 cmd/built-in.o
 .text.do_coninfo
                0x0000000087806310       0xb0 cmd/built-in.o
 .text.do_echo  0x00000000878063c0       0xb4 cmd/built-in.o
 .text.load_elf_image_shdr
                0x0000000087806474       0x8c cmd/built-in.o
 .text.valid_elf_image
                0x0000000087806500       0x4c cmd/built-in.o
                0x0000000087806500                valid_elf_image
 .text.do_bootelf
                0x000000008780654c      0x1cc cmd/built-in.o
                0x000000008780654c                do_bootelf
 .text.do_bootvx
                0x0000000087806718      0x334 cmd/built-in.o
                0x0000000087806718                do_bootvx
 .text.do_exit  0x0000000087806a4c       0x48 cmd/built-in.o
 .text.do_fat_size
                0x0000000087806a94       0x18 cmd/built-in.o
                0x0000000087806a94                do_fat_size
 .text.do_fat_fsload
                0x0000000087806aac       0x18 cmd/built-in.o
                0x0000000087806aac                do_fat_fsload
 .text.do_fat_ls
                0x0000000087806ac4       0x18 cmd/built-in.o
 .text.do_fat_fsinfo
                0x0000000087806adc       0x8c cmd/built-in.o
 .text.fdt_valid
                0x0000000087806b68       0xbc cmd/built-in.o
 .text.is_printable_string
                0x0000000087806c24       0x88 cmd/built-in.o
 .text.print_data
                0x0000000087806cac      0x170 cmd/built-in.o
 .text.set_working_fdt_addr
                0x0000000087806e1c       0x1c cmd/built-in.o
                0x0000000087806e1c                set_working_fdt_addr
 .text.do_fdt   0x0000000087806e38      0xf4c cmd/built-in.o
 .text.do_size_wrapper
                0x0000000087807d84       0x18 cmd/built-in.o
 .text.do_load_wrapper
                0x0000000087807d9c       0x64 cmd/built-in.o
 .text.do_save_wrapper
                0x0000000087807e00       0x18 cmd/built-in.o
 .text.do_ls_wrapper
                0x0000000087807e18       0x18 cmd/built-in.o
 .text.do_fstype_wrapper
                0x0000000087807e30        0x4 cmd/built-in.o
 .text.strtou32
                0x0000000087807e34       0x44 cmd/built-in.o
 .text.do_fuse  0x0000000087807e78      0x364 cmd/built-in.o
 .text.name_to_gpio
                0x00000000878081dc        0xc cmd/built-in.o
                0x00000000878081dc                name_to_gpio
 .text.do_gpio  0x00000000878081e8      0x1ac cmd/built-in.o
 .text.do_i2c   0x0000000087808394       0x68 cmd/built-in.o
 .text.do_i2c_bus_speed
                0x00000000878083fc       0x78 cmd/built-in.o
 .text.do_i2c_reset
                0x0000000087808474       0x2c cmd/built-in.o
 .text.do_i2c_probe
                0x00000000878084a0       0xa0 cmd/built-in.o
 .text.do_i2c_bus_num
                0x0000000087808540       0xb8 cmd/built-in.o
 .text.do_i2c_show_bus
                0x00000000878085f8       0xdc cmd/built-in.o
 .text.get_alen.constprop.5
                0x00000000878086d4       0x3c cmd/built-in.o
 .text.do_i2c_crc
                0x0000000087808710      0x120 cmd/built-in.o
 .text.mod_i2c_mem.isra.3
                0x0000000087808830      0x1ec cmd/built-in.o
 .text.do_i2c_nm
                0x0000000087808a1c        0x8 cmd/built-in.o
 .text.do_i2c_mm
                0x0000000087808a24        0x8 cmd/built-in.o
 .text.do_i2c_md
                0x0000000087808a2c      0x1e8 cmd/built-in.o
 .text.do_i2c_read
                0x0000000087808c14       0xbc cmd/built-in.o
 .text.do_i2c_mw
                0x0000000087808cd0       0xf8 cmd/built-in.o
 .text.do_i2c_write
                0x0000000087808dc8      0x144 cmd/built-in.o
 .text.do_i2c_loop
                0x0000000087808f0c       0xec cmd/built-in.o
 .text.i2c_init_board
                0x0000000087808ff8        0x4 cmd/built-in.o
                0x0000000087808ff8                i2c_init_board
 .text.evalexp  0x0000000087808ffc       0x7c cmd/built-in.o
 .text.evalstr  0x0000000087809078       0x64 cmd/built-in.o
 .text.binary_test
                0x00000000878090dc      0x1c0 cmd/built-in.o
 .text.do_itest
                0x000000008780929c       0x88 cmd/built-in.o
 .text.bin_data_init
                0x0000000087809324       0x2c cmd/built-in.o
 .text.k_data_save
                0x0000000087809350       0x4c cmd/built-in.o
 .text.k_data_restore
                0x000000008780939c       0x4c cmd/built-in.o
 .text.getcxmodem
                0x00000000878093e8       0x20 cmd/built-in.o
 .text.load_serial_ymodem
                0x0000000087809408       0xcc cmd/built-in.o
 .text.bin_data_char
                0x00000000878094d4       0x2c cmd/built-in.o
 .text.chk1.constprop.2
                0x0000000087809500       0x30 cmd/built-in.o
 .text.s1_sendpacket.constprop.3
                0x0000000087809530       0x4c cmd/built-in.o
 .text.load_serial
                0x000000008780957c      0x1d8 cmd/built-in.o
 .text.do_load_serial
                0x0000000087809754       0xdc cmd/built-in.o
 .text.do_load_serial_bin
                0x0000000087809830      0x794 cmd/built-in.o
 .text.do_mem_mw
                0x0000000087809fc4       0xc0 cmd/built-in.o
 .text.do_mem_loop
                0x000000008780a084       0xec cmd/built-in.o
 .text.do_mem_md
                0x000000008780a170       0xe8 cmd/built-in.o
 .text.do_mem_cmp
                0x000000008780a258      0x154 cmd/built-in.o
 .text.do_mem_base
                0x000000008780a3ac       0x40 cmd/built-in.o
 .text.do_mem_cp
                0x000000008780a3ec       0xa8 cmd/built-in.o
 .text.do_mem_crc
                0x000000008780a494       0x48 cmd/built-in.o
 .text.do_mem_mtest
                0x000000008780a4dc      0x224 cmd/built-in.o
 .text.mod_mem.isra.0
                0x000000008780a700      0x170 cmd/built-in.o
 .text.do_mem_mm
                0x000000008780a870        0x8 cmd/built-in.o
 .text.do_mem_nm
                0x000000008780a878        0x8 cmd/built-in.o
 .text.extract_range
                0x000000008780a880       0xe4 cmd/built-in.o
 .text.do_mii   0x000000008780a964      0x8f8 cmd/built-in.o
 .text.do_mdio  0x000000008780b25c      0x4e8 cmd/built-in.o
 .text.do_sleep
                0x000000008780b744       0xcc cmd/built-in.o
 .text.do_mmcops
                0x000000008780b810       0xb8 cmd/built-in.o
 .text.init_mmc_device
                0x000000008780b8c8       0x50 cmd/built-in.o
 .text.do_mmc_rescan
                0x000000008780b918       0x24 cmd/built-in.o
 .text.do_mmc_rst_func
                0x000000008780b93c       0x9c cmd/built-in.o
 .text.do_mmc_partconf
                0x000000008780b9d8       0xfc cmd/built-in.o
 .text.do_mmc_boot_resize
                0x000000008780bad4       0xc8 cmd/built-in.o
 .text.do_mmc_bootbus
                0x000000008780bb9c       0xb0 cmd/built-in.o
 .text.do_mmc_hwpartition
                0x000000008780bc4c      0x50c cmd/built-in.o
 .text.do_mmc_list
                0x000000008780c158       0x14 cmd/built-in.o
 .text.do_mmc_dev
                0x000000008780c16c      0x134 cmd/built-in.o
 .text.do_mmc_read
                0x000000008780c2a0       0xe4 cmd/built-in.o
 .text.do_mmc_erase
                0x000000008780c384       0xec cmd/built-in.o
 .text.do_mmc_write
                0x000000008780c470      0x104 cmd/built-in.o
 .text.do_mmcinfo
                0x000000008780c574      0x3a4 cmd/built-in.o
 .text.do_mmc_setdsr
                0x000000008780c918       0xa8 cmd/built-in.o
 .text.do_mmc_part
                0x000000008780c9c0       0x60 cmd/built-in.o
 .text.netboot_common
                0x000000008780ca20      0x288 cmd/built-in.o
 .text.do_bootp
                0x000000008780cca8        0xc cmd/built-in.o
 .text.do_dhcp  0x000000008780ccb4        0xc cmd/built-in.o
 .text.do_nfs   0x000000008780ccc0        0xc cmd/built-in.o
 .text.do_tftpb
                0x000000008780cccc       0x40 cmd/built-in.o
                0x000000008780cccc                do_tftpb
 .text.do_ping  0x000000008780cd0c       0x78 cmd/built-in.o
 .text.substitute
                0x000000008780cd84       0xf0 cmd/built-in.o
 .text.get_arg  0x000000008780ce74       0x58 cmd/built-in.o
 .text.regex_sub.part.1
                0x000000008780cecc      0x47c cmd/built-in.o
 .text.do_setexpr
                0x000000008780d348      0x194 cmd/built-in.o
 .text.do_false
                0x000000008780d4dc        0x8 cmd/built-in.o
 .text.do_true  0x000000008780d4e4        0x8 cmd/built-in.o
 .text.do_test  0x000000008780d4ec      0x328 cmd/built-in.o
 .text.usb_get_class_desc
                0x000000008780d814       0xbc cmd/built-in.o
 .text.usb_find_device
                0x000000008780d8d0       0x3c cmd/built-in.o
 .text.usb_show_tree_graph
                0x000000008780d90c      0x230 cmd/built-in.o
 .text.usb_display_class_sub
                0x000000008780db3c      0x170 cmd/built-in.o
 .text.usb_display_desc
                0x000000008780dcac      0x150 cmd/built-in.o
 .text.usb_display_string
                0x000000008780ddfc       0x44 cmd/built-in.o
 .text.usb_display_config
                0x000000008780de40      0x210 cmd/built-in.o
 .text.do_usbboot
                0x000000008780e050        0xc cmd/built-in.o
 .text.do_usb_start
                0x000000008780e05c       0x38 cmd/built-in.o
 .text.usb_show_tree
                0x000000008780e094       0x54 cmd/built-in.o
                0x000000008780e094                usb_show_tree
 .text.do_usb   0x000000008780e0e8      0x404 cmd/built-in.o
 .text.common_diskboot
                0x000000008780e4ec      0x2a8 cmd/built-in.o
                0x000000008780e4ec                common_diskboot
 .text.do_fastboot
                0x000000008780e794       0xb8 cmd/built-in.o
 .text.ums_read_sector
                0x000000008780e84c       0x20 cmd/built-in.o
 .text.ums_write_sector
                0x000000008780e86c       0x20 cmd/built-in.o
 .text.ums_fini
                0x000000008780e88c       0x54 cmd/built-in.o
 .text.do_usb_mass_storage
                0x000000008780e8e0      0x34c cmd/built-in.o
 .text.do_imgextract
                0x000000008780ec2c      0x3b8 cmd/built-in.o
 .text.do_env_delete
                0x000000008780efe4       0xa0 cmd/built-in.o
 .text.do_env_exists
                0x000000008780f084       0x64 cmd/built-in.o
 .text.do_env_save
                0x000000008780f0e8       0x14 cmd/built-in.o
 .text.do_env   0x000000008780f0fc       0x68 cmd/built-in.o
 .text.env_print
                0x000000008780f164       0xc4 cmd/built-in.o
 .text.do_env_print
                0x000000008780f228       0xc0 cmd/built-in.o
 .text.do_env_import
                0x000000008780f2e8      0x264 cmd/built-in.o
 .text.do_env_default
                0x000000008780f54c       0x9c cmd/built-in.o
 .text._do_env_set.isra.0
                0x000000008780f5e8      0x1b4 cmd/built-in.o
 .text.do_env_set
                0x000000008780f79c       0x20 cmd/built-in.o
 .text.get_env_id
                0x000000008780f7bc       0x10 cmd/built-in.o
                0x000000008780f7bc                get_env_id
 .text.env_set  0x000000008780f7cc       0x60 cmd/built-in.o
                0x000000008780f7cc                env_set
 .text.env_set_ulong
                0x000000008780f82c       0x20 cmd/built-in.o
                0x000000008780f82c                env_set_ulong
 .text.env_set_hex
                0x000000008780f84c       0x34 cmd/built-in.o
                0x000000008780f84c                env_set_hex
 .text.do_env_export
                0x000000008780f880      0x220 cmd/built-in.o
 .text.envmatch
                0x000000008780faa0       0x6c cmd/built-in.o
                0x000000008780faa0                envmatch
 .text.env_get_f
                0x000000008780fb0c       0xdc cmd/built-in.o
                0x000000008780fb0c                env_get_f
 .text.env_get  0x000000008780fbe8       0x78 cmd/built-in.o
                0x000000008780fbe8                env_get
 .text.env_get_hex
                0x000000008780fc60       0x3c cmd/built-in.o
                0x000000008780fc60                env_get_hex
 .text.env_get_ulong
                0x000000008780fc9c       0x30 cmd/built-in.o
                0x000000008780fc9c                env_get_ulong
 .text.do_env_edit.part.3
                0x000000008780fccc       0xac cmd/built-in.o
 .text.do_env_edit
                0x000000008780fd78       0x2c cmd/built-in.o
 .text.board_init_f_alloc_reserve
                0x000000008780fda4        0xc common/built-in.o
                0x000000008780fda4                board_init_f_alloc_reserve
 .text.board_init_f_init_reserve
                0x000000008780fdb0       0x20 common/built-in.o
                0x000000008780fdb0                board_init_f_init_reserve
 .text.show_boot_progress
                0x000000008780fdd0        0x8 common/built-in.o
                0x000000008780fdd0                show_boot_progress
 .text.main_loop
                0x000000008780fdd8       0x28 common/built-in.o
                0x000000008780fdd8                main_loop
 .text.mdelay   0x000000008780fe00       0x1c common/built-in.o
 .text.dummy    0x000000008780fe1c        0x4 common/built-in.o
 .text.get_version
                0x000000008780fe20        0x8 common/built-in.o
                0x000000008780fe20                get_version
 .text.jumptable_init
                0x000000008780fe28      0x1f0 common/built-in.o
                0x000000008780fe28                jumptable_init
 .text.hash_finish_crc32
                0x0000000087810018       0x30 common/built-in.o
 .text.hash_update_crc32
                0x0000000087810048       0x24 common/built-in.o
 .text.hash_init_crc32
                0x000000008781006c       0x24 common/built-in.o
 .text.hash_finish_sha256
                0x0000000087810090       0x38 common/built-in.o
 .text.hash_update_sha256
                0x00000000878100c8       0x1c common/built-in.o
 .text.hash_init_sha256
                0x00000000878100e4       0x24 common/built-in.o
 .text.hash_finish_sha1
                0x0000000087810108       0x38 common/built-in.o
 .text.hash_update_sha1
                0x0000000087810140       0x1c common/built-in.o
 .text.hash_init_sha1
                0x000000008781015c       0x24 common/built-in.o
 .text.hash_lookup_algo
                0x0000000087810180       0x54 common/built-in.o
                0x0000000087810180                hash_lookup_algo
 .text.hash_command
                0x00000000878101d4      0x1cc common/built-in.o
                0x00000000878101d4                hash_command
 .text.b_reset  0x00000000878103a0       0x1c common/built-in.o
 .text.static_get
                0x00000000878103bc       0x1c common/built-in.o
 .text.static_peek
                0x00000000878103d8        0xc common/built-in.o
 .text.mapset   0x00000000878103e4       0x20 common/built-in.o
 .text.syntax_err
                0x0000000087810404        0xc common/built-in.o
 .text.free_pipe_list
                0x0000000087810410       0xe4 common/built-in.o
 .text.xmalloc  0x00000000878104f4       0x20 common/built-in.o
 .text.new_pipe
                0x0000000087810514       0x28 common/built-in.o
 .text.xrealloc
                0x000000008781053c       0x20 common/built-in.o
 .text.done_command
                0x000000008781055c       0x88 common/built-in.o
 .text.done_pipe
                0x00000000878105e4       0x48 common/built-in.o
 .text.done_word
                0x000000008781062c      0x2cc common/built-in.o
 .text.is_assignment
                0x00000000878108f8       0x5c common/built-in.o
 .text.file_get
                0x0000000087810954      0x1ec common/built-in.o
 .text.do_showvar
                0x0000000087810b40      0x100 common/built-in.o
 .text.b_addchr
                0x0000000087810c40       0x80 common/built-in.o
 .text.b_addqchr
                0x0000000087810cc0       0x50 common/built-in.o
 .text.file_peek
                0x0000000087810d10        0xc common/built-in.o
 .text.get_local_var
                0x0000000087810d1c       0x94 common/built-in.o
                0x0000000087810d1c                get_local_var
 .text.set_local_var
                0x0000000087810db0      0x1a8 common/built-in.o
                0x0000000087810db0                set_local_var
 .text.insert_var_value_sub
                0x0000000087810f58      0x2b8 common/built-in.o
 .text.parse_string_outer
                0x0000000087811210       0xe8 common/built-in.o
                0x0000000087811210                parse_string_outer
 .text.run_list_real
                0x00000000878112f8      0x7b0 common/built-in.o
 .text.parse_stream_outer
                0x0000000087811aa8      0x6c0 common/built-in.o
 .text.parse_file_outer
                0x0000000087812168       0x44 common/built-in.o
                0x0000000087812168                parse_file_outer
 .text.u_boot_hush_start
                0x00000000878121ac       0x54 common/built-in.o
                0x00000000878121ac                u_boot_hush_start
 .text.bootdelay_process
                0x0000000087812200      0x118 common/built-in.o
                0x0000000087812200                bootdelay_process
 .text.autoboot_command
                0x0000000087812318       0xf4 common/built-in.o
                0x0000000087812318                autoboot_command
 .text.log_init
                0x000000008781240c       0x10 common/built-in.o
 .text.display_text_info
                0x000000008781241c        0x8 common/built-in.o
 .text.setup_mon_len
                0x0000000087812424       0x20 common/built-in.o
 .text.reserve_round_4k
                0x0000000087812444       0x18 common/built-in.o
 .text.reserve_mmu
                0x000000008781245c       0x38 common/built-in.o
                0x000000008781245c                reserve_mmu
 .text.reserve_uboot
                0x0000000087812494       0x30 common/built-in.o
 .text.reserve_malloc
                0x00000000878124c4       0x14 common/built-in.o
 .text.reserve_global_data
                0x00000000878124d8       0x1c common/built-in.o
 .text.reserve_fdt
                0x00000000878124f4       0x4c common/built-in.o
 .text.dram_init_banksize
                0x0000000087812540       0x24 common/built-in.o
                0x0000000087812540                dram_init_banksize
 .text.setup_reloc
                0x0000000087812564       0x40 common/built-in.o
 .text.reloc_fdt
                0x00000000878125a4       0x44 common/built-in.o
 .text.reserve_board
                0x00000000878125e8       0x40 common/built-in.o
 .text.announce_dram_init
                0x0000000087812628       0x18 common/built-in.o
 .text.init_func_i2c
                0x0000000087812640       0x28 common/built-in.o
 .text.init_baud_rate
                0x0000000087812668       0x2c common/built-in.o
 .text.initf_dm
                0x0000000087812694        0x8 common/built-in.o
 .text.initf_bootstage
                0x000000008781269c       0x14 common/built-in.o
 .text.arch_cpu_init_dm
                0x00000000878126b0        0x8 common/built-in.o
                0x00000000878126b0                arch_cpu_init_dm
 .text.mach_cpu_init
                0x00000000878126b8        0x8 common/built-in.o
                0x00000000878126b8                mach_cpu_init
 .text.reserve_video
                0x00000000878126c0        0x8 common/built-in.o
 .text.reserve_trace
                0x00000000878126c8        0x8 common/built-in.o
 .text.setup_machine
                0x00000000878126d0        0x8 common/built-in.o
 .text.reserve_bootstage
                0x00000000878126d8        0x8 common/built-in.o
 .text.display_new_sp
                0x00000000878126e0        0x8 common/built-in.o
 .text.reloc_bootstage
                0x00000000878126e8        0x8 common/built-in.o
 .text.initf_console_record
                0x00000000878126f0        0x8 common/built-in.o
 .text.reserve_arch
                0x00000000878126f8        0x8 common/built-in.o
                0x00000000878126f8                reserve_arch
 .text.coloured_LED_init
                0x0000000087812700        0x4 common/built-in.o
                0x0000000087812700                coloured_LED_init
 .text.red_led_on
                0x0000000087812704        0x4 common/built-in.o
                0x0000000087812704                red_led_on
 .text.board_add_ram_info
                0x0000000087812708        0x4 common/built-in.o
                0x0000000087812708                board_add_ram_info
 .text.show_dram_config
                0x000000008781270c       0x38 common/built-in.o
 .text.board_get_usable_ram_top
                0x0000000087812744       0x14 common/built-in.o
                0x0000000087812744                board_get_usable_ram_top
 .text.setup_dest_addr
                0x0000000087812758       0x3c common/built-in.o
 .text.reserve_stacks
                0x0000000087812794       0x1c common/built-in.o
 .text.board_init_f
                0x00000000878127b0       0x28 common/built-in.o
                0x00000000878127b0                board_init_f
 .text.initr_trace
                0x00000000878127d8        0x8 common/built-in.o
 .text.initr_reloc
                0x00000000878127e0       0x18 common/built-in.o
 .text.run_main_loop
                0x00000000878127f8        0xc common/built-in.o
 .text.initr_check_fastboot
                0x0000000087812804       0x10 common/built-in.o
 .text.initr_net
                0x0000000087812814       0x1c common/built-in.o
 .text.initr_fastboot_setup
                0x0000000087812830       0x10 common/built-in.o
 .text.initr_ethaddr
                0x0000000087812840       0x20 common/built-in.o
 .text.initr_enable_interrupts
                0x0000000087812860       0x10 common/built-in.o
 .text.initr_jumptable
                0x0000000087812870       0x10 common/built-in.o
 .text.initr_env
                0x0000000087812880       0x30 common/built-in.o
 .text.initr_mmc
                0x00000000878128b0       0x20 common/built-in.o
 .text.initr_serial
                0x00000000878128d0       0x10 common/built-in.o
 .text.initr_dm
                0x00000000878128e0       0x14 common/built-in.o
 .text.initr_bootstage
                0x00000000878128f4       0x14 common/built-in.o
 .text.initr_malloc
                0x0000000087812908       0x1c common/built-in.o
 .text.initr_reloc_global_data
                0x0000000087812924       0x38 common/built-in.o
 .text.initr_caches
                0x000000008781295c       0x10 common/built-in.o
 .text.bootstage_relocate
                0x000000008781296c        0x8 common/built-in.o
 .text.initr_barrier
                0x0000000087812974        0x8 common/built-in.o
 .text.initr_console_record
                0x000000008781297c        0x8 common/built-in.o
 .text.initr_announce
                0x0000000087812984        0x8 common/built-in.o
 .text.cpu_secondary_init_r
                0x000000008781298c        0x4 common/built-in.o
                0x000000008781298c                cpu_secondary_init_r
 .text.initr_secondary_cpu
                0x0000000087812990       0x10 common/built-in.o
 .text.board_init_r
                0x00000000878129a0       0x20 common/built-in.o
                0x00000000878129a0                board_init_r
 .text.show_board_info
                0x00000000878129c0        0x4 common/built-in.o
                0x00000000878129c0                show_board_info
 .text.bootm_find_images
                0x00000000878129c4       0xd4 common/built-in.o
                0x00000000878129c4                bootm_find_images
 .text.bootm_decomp_image
                0x0000000087812a98      0x140 common/built-in.o
                0x0000000087812a98                bootm_decomp_image
 .text.bootm_disable_interrupts
                0x0000000087812bd8       0x18 common/built-in.o
                0x0000000087812bd8                bootm_disable_interrupts
 .text.do_bootm_states
                0x0000000087812bf0      0x8a4 common/built-in.o
                0x0000000087812bf0                do_bootm_states
 .text.do_bootm_standalone
                0x0000000087813494       0x64 common/built-in.o
 .text.do_bootm_qnxelf
                0x00000000878134f8       0xa8 common/built-in.o
 .text.do_bootvx_fdt
                0x00000000878135a0      0x114 common/built-in.o
                0x00000000878135a0                do_bootvx_fdt
 .text.do_bootm_vxworks
                0x00000000878136b4       0x54 common/built-in.o
 .text.boot_selected_os
                0x0000000087813708       0x58 common/built-in.o
                0x0000000087813708                boot_selected_os
 .text.bootm_os_get_boot_func
                0x0000000087813760       0x10 common/built-in.o
                0x0000000087813760                bootm_os_get_boot_func
 .text.fdt_find_and_setprop
                0x0000000087813770       0x70 common/built-in.o
                0x0000000087813770                fdt_find_and_setprop
 .text.fdt_find_or_add_subnode
                0x00000000878137e0       0x60 common/built-in.o
                0x00000000878137e0                fdt_find_or_add_subnode
 .text.fdt_root
                0x0000000087813840       0x90 common/built-in.o
                0x0000000087813840                fdt_root
 .text.fdt_initrd
                0x00000000878138d0      0x1d0 common/built-in.o
                0x00000000878138d0                fdt_initrd
 .text.fdt_chosen
                0x0000000087813aa0       0xa8 common/built-in.o
                0x0000000087813aa0                fdt_chosen
 .text.do_fixup_by_path
                0x0000000087813b48       0x54 common/built-in.o
                0x0000000087813b48                do_fixup_by_path
 .text.fdt_fixup_memory_banks
                0x0000000087813b9c      0x200 common/built-in.o
                0x0000000087813b9c                fdt_fixup_memory_banks
 .text.fdt_fixup_memory
                0x0000000087813d9c       0x20 common/built-in.o
                0x0000000087813d9c                fdt_fixup_memory
 .text.fdt_fixup_ethernet
                0x0000000087813dbc      0x1b8 common/built-in.o
                0x0000000087813dbc                fdt_fixup_ethernet
 .text.fdt_shrink_to_minimum
                0x0000000087813f74       0xd4 common/built-in.o
                0x0000000087813f74                fdt_shrink_to_minimum
 .text.miiphy_get_dev_by_name
                0x0000000087814048       0x58 common/built-in.o
                0x0000000087814048                miiphy_get_dev_by_name
 .text.miiphy_init
                0x00000000878140a0       0x24 common/built-in.o
                0x00000000878140a0                miiphy_init
 .text.mdio_alloc
                0x00000000878140c4       0x30 common/built-in.o
                0x00000000878140c4                mdio_alloc
 .text.mdio_register
                0x00000000878140f4       0x88 common/built-in.o
                0x00000000878140f4                mdio_register
 .text.mdio_unregister
                0x000000008781417c       0x3c common/built-in.o
                0x000000008781417c                mdio_unregister
 .text.mdio_list_devices
                0x00000000878141b8       0xac common/built-in.o
                0x00000000878141b8                mdio_list_devices
 .text.miiphy_set_current_dev
                0x0000000087814264       0x40 common/built-in.o
                0x0000000087814264                miiphy_set_current_dev
 .text.miiphy_get_active_dev
                0x00000000878142a4       0x54 common/built-in.o
 .text.mdio_get_current_dev
                0x00000000878142f8       0x10 common/built-in.o
                0x00000000878142f8                mdio_get_current_dev
 .text.mdio_phydev_for_ethname
                0x0000000087814308       0x88 common/built-in.o
                0x0000000087814308                mdio_phydev_for_ethname
 .text.miiphy_get_current_dev
                0x0000000087814390       0x18 common/built-in.o
                0x0000000087814390                miiphy_get_current_dev
 .text.miiphy_read
                0x00000000878143a8       0x4c common/built-in.o
                0x00000000878143a8                miiphy_read
 .text.miiphy_write
                0x00000000878143f4       0x40 common/built-in.o
                0x00000000878143f4                miiphy_write
 .text.miiphy_listdev
                0x0000000087814434       0x78 common/built-in.o
                0x0000000087814434                miiphy_listdev
 .text.miiphy_info
                0x00000000878144ac       0x88 common/built-in.o
                0x00000000878144ac                miiphy_info
 .text.miiphy_speed
                0x0000000087814534       0xc4 common/built-in.o
                0x0000000087814534                miiphy_speed
 .text.miiphy_duplex
                0x00000000878145f8       0xbc common/built-in.o
                0x00000000878145f8                miiphy_duplex
 .text.miiphy_is_1000base_x
                0x00000000878146b4        0x8 common/built-in.o
                0x00000000878146b4                miiphy_is_1000base_x
 .text.usb_set_maxpacket_ep
                0x00000000878146bc       0x78 common/built-in.o
 .text.usb_stop
                0x0000000087814734       0x80 common/built-in.o
                0x0000000087814734                usb_stop
 .text.usb_disable_asynch
                0x00000000878147b4       0x20 common/built-in.o
                0x00000000878147b4                usb_disable_asynch
 .text.usb_control_msg
                0x00000000878147d4       0xbc common/built-in.o
                0x00000000878147d4                usb_control_msg
 .text.usb_get_descriptor
                0x0000000087814890       0x58 common/built-in.o
 .text.get_descriptor_len
                0x00000000878148e8       0x90 common/built-in.o
 .text.usb_setup_descriptor
                0x0000000087814978       0xd8 common/built-in.o
 .text.usb_get_string
                0x0000000087814a50       0x78 common/built-in.o
 .text.usb_string_sub
                0x0000000087814ac8      0x104 common/built-in.o
 .text.usb_bulk_msg
                0x0000000087814bcc       0x70 common/built-in.o
                0x0000000087814bcc                usb_bulk_msg
 .text.usb_maxpacket
                0x0000000087814c3c       0x18 common/built-in.o
                0x0000000087814c3c                usb_maxpacket
 .text.usb_clear_halt
                0x0000000087814c54       0x90 common/built-in.o
                0x0000000087814c54                usb_clear_halt
 .text.usb_get_configuration_len
                0x0000000087814ce4       0x74 common/built-in.o
                0x0000000087814ce4                usb_get_configuration_len
 .text.usb_get_configuration_no
                0x0000000087814d58       0x34 common/built-in.o
                0x0000000087814d58                usb_get_configuration_no
 .text.usb_set_interface
                0x0000000087814d8c       0xb4 common/built-in.o
                0x0000000087814d8c                usb_set_interface
 .text.usb_string
                0x0000000087814e40      0x104 common/built-in.o
                0x0000000087814e40                usb_string
 .text.usb_get_dev_index
                0x0000000087814f44       0x24 common/built-in.o
                0x0000000087814f44                usb_get_dev_index
 .text.usb_alloc_new_device
                0x0000000087814f68       0x8c common/built-in.o
                0x0000000087814f68                usb_alloc_new_device
 .text.usb_free_device
                0x0000000087814ff4       0x48 common/built-in.o
                0x0000000087814ff4                usb_free_device
 .text.usb_alloc_device
                0x000000008781503c        0x8 common/built-in.o
                0x000000008781503c                usb_alloc_device
 .text.usb_select_config
                0x0000000087815044      0x470 common/built-in.o
                0x0000000087815044                usb_select_config
 .text.usb_setup_device
                0x00000000878154b4       0xf0 common/built-in.o
                0x00000000878154b4                usb_setup_device
 .text.usb_new_device
                0x00000000878155a4       0x30 common/built-in.o
                0x00000000878155a4                usb_new_device
 .text.usb_init
                0x00000000878155d4      0x174 common/built-in.o
                0x00000000878155d4                usb_init
 .text.board_usb_init
                0x0000000087815748        0x8 common/built-in.o
                0x0000000087815748                board_usb_init
 .text.board_usb_cleanup
                0x0000000087815750        0x8 common/built-in.o
                0x0000000087815750                board_usb_cleanup
 .text.usb_device_has_child_on_port
                0x0000000087815758       0x14 common/built-in.o
                0x0000000087815758                usb_device_has_child_on_port
 .text.usb_find_usb2_hub_address_port
                0x000000008781576c       0x5c common/built-in.o
                0x000000008781576c                usb_find_usb2_hub_address_port
 .text.usb_set_port_feature
                0x00000000878157c8       0x4c common/built-in.o
 .text.usb_clear_port_feature
                0x0000000087815814       0x4c common/built-in.o
 .text.usb_get_hub_descriptor
                0x0000000087815860       0x5c common/built-in.o
 .text.usb_hub_reset_devices
                0x00000000878158bc        0x4 common/built-in.o
                0x00000000878158bc                usb_hub_reset_devices
 .text.usb_get_port_status
                0x00000000878158c0       0x4c common/built-in.o
                0x00000000878158c0                usb_get_port_status
 .text.usb_hub_reset
                0x000000008781590c       0x20 common/built-in.o
                0x000000008781590c                usb_hub_reset
 .text.usb_hub_port_connect_change
                0x000000008781592c      0x1ac common/built-in.o
                0x000000008781592c                usb_hub_port_connect_change
 .text.usb_hub_configure
                0x0000000087815ad8      0x590 common/built-in.o
 .text.usb_hub_probe
                0x0000000087816068       0x54 common/built-in.o
                0x0000000087816068                usb_hub_probe
 .text.usb_stor_irq
                0x00000000878160bc       0x1c common/built-in.o
 .text.usb_stor_BBB_reset
                0x00000000878160d8      0x108 common/built-in.o
 .text.usb_stor_CB_reset
                0x00000000878161e0       0xdc common/built-in.o
 .text.usb_stor_BBB_clear_endpt_stall.isra.3
                0x00000000878162bc       0x40 common/built-in.o
 .text.usb_stor_BBB_transport
                0x00000000878162fc      0x284 common/built-in.o
 .text.usb_stor_CB_comdat
                0x0000000087816580      0x210 common/built-in.o
 .text.usb_stor_CBI_get_status.isra.5
                0x0000000087816790       0xd8 common/built-in.o
 .text.usb_stor_CB_transport
                0x0000000087816868      0x210 common/built-in.o
 .text.usb_request_sense.constprop.11
                0x0000000087816a78       0x70 common/built-in.o
 .text.usb_stor_read
                0x0000000087816ae8      0x170 common/built-in.o
 .text.usb_stor_write
                0x0000000087816c58      0x170 common/built-in.o
 .text.usb_stor_info
                0x0000000087816dc8       0x78 common/built-in.o
                0x0000000087816dc8                usb_stor_info
 .text.usb_storage_probe
                0x0000000087816e40      0x20c common/built-in.o
                0x0000000087816e40                usb_storage_probe
 .text.usb_stor_get_info
                0x000000008781704c      0x324 common/built-in.o
                0x000000008781704c                usb_stor_get_info
 .text.usb_stor_scan
                0x0000000087817370      0x1ec common/built-in.o
                0x0000000087817370                usb_stor_scan
 .text.splash_screen_prepare
                0x000000008781755c       0x2c common/built-in.o
                0x000000008781755c                splash_screen_prepare
 .text.splash_get_pos
                0x0000000087817588       0x88 common/built-in.o
                0x0000000087817588                splash_get_pos
 .text.splash_select_fs_dev
                0x0000000087817610       0xc0 common/built-in.o
 .text.splash_storage_read_raw.isra.2
                0x00000000878176d0       0x3c common/built-in.o
 .text.splash_source_load
                0x000000008781770c      0x36c common/built-in.o
                0x000000008781770c                splash_source_load
 .text.delete_char.part.0
                0x0000000087817a78       0xd0 common/built-in.o
 .text.cread_add_char
                0x0000000087817b48       0xe4 common/built-in.o
 .text.cli_readline_into_buffer
                0x0000000087817c2c      0xa04 common/built-in.o
                0x0000000087817c2c                cli_readline_into_buffer
 .text.cli_readline
                0x0000000087818630       0x14 common/built-in.o
                0x0000000087818630                cli_readline
 .text.console_setfile
                0x0000000087818644       0xb8 common/built-in.o
 .text.serial_printf
                0x00000000878186fc       0x50 common/built-in.o
                0x00000000878186fc                serial_printf
 .text.fgetc    0x000000008781874c       0x24 common/built-in.o
                0x000000008781874c                fgetc
 .text.getc     0x0000000087818770       0x24 common/built-in.o
                0x0000000087818770                getc
 .text.ftstc    0x0000000087818794       0x24 common/built-in.o
                0x0000000087818794                ftstc
 .text.tstc     0x00000000878187b8       0x24 common/built-in.o
                0x00000000878187b8                tstc
 .text.fputc    0x00000000878187dc       0x1c common/built-in.o
                0x00000000878187dc                fputc
 .text.putc     0x00000000878187f8       0x28 common/built-in.o
                0x00000000878187f8                putc
 .text.fputs    0x0000000087818820       0x1c common/built-in.o
                0x0000000087818820                fputs
 .text.puts     0x000000008781883c       0x28 common/built-in.o
                0x000000008781883c                puts
 .text.ctrlc    0x0000000087818864       0x58 common/built-in.o
                0x0000000087818864                ctrlc
 .text.confirm_yesno
                0x00000000878188bc       0xcc common/built-in.o
                0x00000000878188bc                confirm_yesno
 .text.had_ctrlc
                0x0000000087818988       0x10 common/built-in.o
                0x0000000087818988                had_ctrlc
 .text.clear_ctrlc
                0x0000000087818998       0x14 common/built-in.o
                0x0000000087818998                clear_ctrlc
 .text.search_device
                0x00000000878189ac       0x28 common/built-in.o
                0x00000000878189ac                search_device
 .text.console_assign
                0x00000000878189d4       0x40 common/built-in.o
                0x00000000878189d4                console_assign
 .text.on_console
                0x0000000087818a14       0xb8 common/built-in.o
 .text.console_init_f
                0x0000000087818acc       0x10 common/built-in.o
                0x0000000087818acc                console_init_f
 .text.stdio_print_current_devices
                0x0000000087818adc       0xb0 common/built-in.o
                0x0000000087818adc                stdio_print_current_devices
 .text.console_init_r
                0x0000000087818b8c      0x1ac common/built-in.o
                0x0000000087818b8c                console_init_r
 .text.sbrk     0x0000000087818d38       0x6c common/built-in.o
                0x0000000087818d38                sbrk
 .text.mem_malloc_init
                0x0000000087818da4       0x34 common/built-in.o
                0x0000000087818da4                mem_malloc_init
 .text.malloc_trim
                0x0000000087818dd8       0xd0 common/built-in.o
                0x0000000087818dd8                malloc_trim
 .text.free     0x0000000087818ea8      0x240 common/built-in.o
                0x0000000087818ea8                free
 .text.malloc   0x00000000878190e8      0x614 common/built-in.o
                0x00000000878190e8                malloc
 .text.calloc   0x00000000878196fc      0x140 common/built-in.o
                0x00000000878196fc                calloc
 .text.realloc  0x000000008781983c      0x428 common/built-in.o
                0x000000008781983c                realloc
 .text.memalign
                0x0000000087819c64      0x170 common/built-in.o
                0x0000000087819c64                memalign
 .text.initf_malloc
                0x0000000087819dd4       0x18 common/built-in.o
                0x0000000087819dd4                initf_malloc
 .text.malloc_simple
                0x0000000087819dec       0x30 common/built-in.o
                0x0000000087819dec                malloc_simple
 .text.on_loadaddr
                0x0000000087819e1c       0x40 common/built-in.o
 .text.image_check_hcrc
                0x0000000087819e5c       0x4c common/built-in.o
                0x0000000087819e5c                image_check_hcrc
 .text.image_check_dcrc
                0x0000000087819ea8       0x38 common/built-in.o
                0x0000000087819ea8                image_check_dcrc
 .text.image_multi_count
                0x0000000087819ee0       0x1c common/built-in.o
                0x0000000087819ee0                image_multi_count
 .text.image_multi_getimg
                0x0000000087819efc       0x80 common/built-in.o
                0x0000000087819efc                image_multi_getimg
 .text.env_get_bootm_low
                0x0000000087819f7c       0x30 common/built-in.o
                0x0000000087819f7c                env_get_bootm_low
 .text.env_get_bootm_size
                0x0000000087819fac       0x68 common/built-in.o
                0x0000000087819fac                env_get_bootm_size
 .text.env_get_bootm_mapsize
                0x000000008781a014       0x30 common/built-in.o
                0x000000008781a014                env_get_bootm_mapsize
 .text.memmove_wd
                0x000000008781a044        0xc common/built-in.o
                0x000000008781a044                memmove_wd
 .text.genimg_print_size
                0x000000008781a050       0x30 common/built-in.o
                0x000000008781a050                genimg_print_size
 .text.get_table_entry
                0x000000008781a080       0x24 common/built-in.o
                0x000000008781a080                get_table_entry
 .text.get_table_entry_name
                0x000000008781a0a4       0x20 common/built-in.o
                0x000000008781a0a4                get_table_entry_name
 .text.genimg_get_os_name
                0x000000008781a0c4       0x18 common/built-in.o
                0x000000008781a0c4                genimg_get_os_name
 .text.genimg_get_arch_name
                0x000000008781a0dc       0x18 common/built-in.o
                0x000000008781a0dc                genimg_get_arch_name
 .text.genimg_get_type_name
                0x000000008781a0f4       0x18 common/built-in.o
                0x000000008781a0f4                genimg_get_type_name
 .text.genimg_get_comp_name
                0x000000008781a10c       0x18 common/built-in.o
                0x000000008781a10c                genimg_get_comp_name
 .text.image_print_contents
                0x000000008781a124      0x1b0 common/built-in.o
                0x000000008781a124                image_print_contents
 .text.get_table_entry_id
                0x000000008781a2d4       0x4c common/built-in.o
                0x000000008781a2d4                get_table_entry_id
 .text.genimg_get_os_id
                0x000000008781a320       0x18 common/built-in.o
                0x000000008781a320                genimg_get_os_id
 .text.genimg_get_arch_id
                0x000000008781a338       0x18 common/built-in.o
                0x000000008781a338                genimg_get_arch_id
 .text.genimg_get_type_id
                0x000000008781a350       0x18 common/built-in.o
                0x000000008781a350                genimg_get_type_id
 .text.genimg_get_comp_id
                0x000000008781a368       0x18 common/built-in.o
                0x000000008781a368                genimg_get_comp_id
 .text.genimg_get_kernel_addr_fit
                0x000000008781a380       0x70 common/built-in.o
                0x000000008781a380                genimg_get_kernel_addr_fit
 .text.genimg_get_format
                0x000000008781a3f0       0x34 common/built-in.o
                0x000000008781a3f0                genimg_get_format
 .text.genimg_has_config
                0x000000008781a424       0x10 common/built-in.o
                0x000000008781a424                genimg_has_config
 .text.boot_get_ramdisk
                0x000000008781a434      0x340 common/built-in.o
                0x000000008781a434                boot_get_ramdisk
 .text.boot_ramdisk_high
                0x000000008781a774      0x130 common/built-in.o
                0x000000008781a774                boot_ramdisk_high
 .text.boot_get_setup
                0x000000008781a8a4        0x4 common/built-in.o
                0x000000008781a8a4                boot_get_setup
 .text.boot_get_loadable
                0x000000008781a8a8      0x188 common/built-in.o
                0x000000008781a8a8                boot_get_loadable
 .text.image_setup_linux
                0x000000008781aa30       0x64 common/built-in.o
                0x000000008781aa30                image_setup_linux
 .text.fdt_error
                0x000000008781aa94       0x2c common/built-in.o
 .text.boot_fdt_add_mem_rsv_regions
                0x000000008781aac0       0x8c common/built-in.o
                0x000000008781aac0                boot_fdt_add_mem_rsv_regions
 .text.boot_relocate_fdt
                0x000000008781ab4c      0x194 common/built-in.o
                0x000000008781ab4c                boot_relocate_fdt
 .text.boot_get_fdt
                0x000000008781ace0      0x390 common/built-in.o
                0x000000008781ace0                boot_get_fdt
 .text.ft_verify_fdt
                0x000000008781b070        0x8 common/built-in.o
                0x000000008781b070                ft_verify_fdt
 .text.image_setup_libfdt
                0x000000008781b078      0x164 common/built-in.o
                0x000000008781b078                image_setup_libfdt
 .text.fit_image_get_address
                0x000000008781b1dc       0x64 common/built-in.o
 .text.fit_parse_conf
                0x000000008781b240       0x64 common/built-in.o
                0x000000008781b240                fit_parse_conf
 .text.fit_parse_subimage
                0x000000008781b2a4       0x64 common/built-in.o
                0x000000008781b2a4                fit_parse_subimage
 .text.fit_get_desc
                0x000000008781b308       0x30 common/built-in.o
                0x000000008781b308                fit_get_desc
 .text.fit_image_get_node
                0x000000008781b338       0x30 common/built-in.o
                0x000000008781b338                fit_image_get_node
 .text.fit_image_get_os
                0x000000008781b368       0x3c common/built-in.o
                0x000000008781b368                fit_image_get_os
 .text.fit_image_get_arch
                0x000000008781b3a4       0x3c common/built-in.o
                0x000000008781b3a4                fit_image_get_arch
 .text.fit_image_get_type
                0x000000008781b3e0       0x3c common/built-in.o
                0x000000008781b3e0                fit_image_get_type
 .text.fit_image_get_comp
                0x000000008781b41c       0x3c common/built-in.o
                0x000000008781b41c                fit_image_get_comp
 .text.fit_image_get_load
                0x000000008781b458       0x10 common/built-in.o
                0x000000008781b458                fit_image_get_load
 .text.fit_image_get_entry
                0x000000008781b468       0x10 common/built-in.o
                0x000000008781b468                fit_image_get_entry
 .text.fit_image_get_data
                0x000000008781b478       0x40 common/built-in.o
                0x000000008781b478                fit_image_get_data
 .text.fit_image_get_data_offset
                0x000000008781b4b8       0x34 common/built-in.o
                0x000000008781b4b8                fit_image_get_data_offset
 .text.fit_image_get_data_size
                0x000000008781b4ec       0x34 common/built-in.o
                0x000000008781b4ec                fit_image_get_data_size
 .text.fit_image_hash_get_algo
                0x000000008781b520       0x30 common/built-in.o
                0x000000008781b520                fit_image_hash_get_algo
 .text.fit_image_hash_get_value
                0x000000008781b550       0x40 common/built-in.o
                0x000000008781b550                fit_image_hash_get_value
 .text.fit_image_print_data
                0x000000008781b590      0x144 common/built-in.o
 .text.fit_image_print
                0x000000008781b6d4      0x384 common/built-in.o
                0x000000008781b6d4                fit_image_print
 .text.fit_get_end
                0x000000008781ba58       0x10 common/built-in.o
                0x000000008781ba58                fit_get_end
 .text.calculate_hash
                0x000000008781ba68       0xf8 common/built-in.o
                0x000000008781ba68                calculate_hash
 .text.fit_image_verify
                0x000000008781bb60      0x218 common/built-in.o
                0x000000008781bb60                fit_image_verify
 .text.fit_all_image_verify
                0x000000008781bd78       0xfc common/built-in.o
                0x000000008781bd78                fit_all_image_verify
 .text.fit_image_check_os
                0x000000008781be74       0x30 common/built-in.o
                0x000000008781be74                fit_image_check_os
 .text.fit_image_check_arch
                0x000000008781bea4       0x44 common/built-in.o
                0x000000008781bea4                fit_image_check_arch
 .text.fit_image_check_type
                0x000000008781bee8       0x30 common/built-in.o
                0x000000008781bee8                fit_image_check_type
 .text.fit_image_check_comp
                0x000000008781bf18       0x30 common/built-in.o
                0x000000008781bf18                fit_image_check_comp
 .text.fit_check_format
                0x000000008781bf48       0x40 common/built-in.o
                0x000000008781bf48                fit_check_format
 .text.fit_conf_get_node
                0x000000008781bf88       0xc8 common/built-in.o
                0x000000008781bf88                fit_conf_get_node
 .text.fit_conf_get_prop_node_index
                0x000000008781c050       0x30 common/built-in.o
                0x000000008781c050                fit_conf_get_prop_node_index
 .text.fit_conf_get_prop_node
                0x000000008781c080        0x8 common/built-in.o
                0x000000008781c080                fit_conf_get_prop_node
 .text.fit_conf_print
                0x000000008781c088      0x1cc common/built-in.o
                0x000000008781c088                fit_conf_print
 .text.fit_print_contents
                0x000000008781c254      0x204 common/built-in.o
                0x000000008781c254                fit_print_contents
 .text.fit_get_node_from_config
                0x000000008781c458       0x40 common/built-in.o
                0x000000008781c458                fit_get_node_from_config
 .text.fit_image_load
                0x000000008781c498      0x5a4 common/built-in.o
                0x000000008781c498                fit_image_load
 .text.boot_get_setup_fit
                0x000000008781ca3c       0x74 common/built-in.o
                0x000000008781ca3c                boot_get_setup_fit
 .text.boot_get_fdt_fit
                0x000000008781cab0      0x16c common/built-in.o
                0x000000008781cab0                boot_get_fdt_fit
 .text.get_effective_memsize
                0x000000008781cc1c        0x8 common/built-in.o
                0x000000008781cc1c                get_effective_memsize
 .text.nulldev_putc
                0x000000008781cc24        0x4 common/built-in.o
 .text.nulldev_puts
                0x000000008781cc28        0x4 common/built-in.o
 .text.nulldev_input
                0x000000008781cc2c        0x8 common/built-in.o
 .text.stdio_serial_tstc
                0x000000008781cc34        0x4 common/built-in.o
 .text.stdio_serial_getc
                0x000000008781cc38        0x4 common/built-in.o
 .text.stdio_serial_puts
                0x000000008781cc3c        0x8 common/built-in.o
 .text.stdio_serial_putc
                0x000000008781cc44        0x8 common/built-in.o
 .text.stdio_get_list
                0x000000008781cc4c        0xc common/built-in.o
                0x000000008781cc4c                stdio_get_list
 .text.stdio_get_by_name
                0x000000008781cc58       0x4c common/built-in.o
                0x000000008781cc58                stdio_get_by_name
 .text.stdio_clone
                0x000000008781cca4       0x38 common/built-in.o
                0x000000008781cca4                stdio_clone
 .text.stdio_register_dev
                0x000000008781ccdc       0x50 common/built-in.o
                0x000000008781ccdc                stdio_register_dev
 .text.stdio_register
                0x000000008781cd2c        0x8 common/built-in.o
                0x000000008781cd2c                stdio_register
 .text.stdio_init_tables
                0x000000008781cd34       0x1c common/built-in.o
                0x000000008781cd34                stdio_init_tables
 .text.stdio_add_devices
                0x000000008781cd50       0xd4 common/built-in.o
                0x000000008781cd50                stdio_add_devices
 .text.write_sparse_image
                0x000000008781ce24      0x408 common/built-in.o
                0x000000008781ce24                write_sparse_image
 .text.run_command
                0x000000008781d22c       0x10 common/built-in.o
                0x000000008781d22c                run_command
 .text.run_command_list
                0x000000008781d23c       0x7c common/built-in.o
                0x000000008781d23c                run_command_list
 .text.do_run   0x000000008781d2b8       0x74 common/built-in.o
                0x000000008781d2b8                do_run
 .text.cli_loop
                0x000000008781d32c        0xc common/built-in.o
                0x000000008781d32c                cli_loop
 .text.cli_init
                0x000000008781d338        0x4 common/built-in.o
                0x000000008781d338                cli_init
 .text.find_cmd_tbl
                0x000000008781d33c       0xa4 common/built-in.o
                0x000000008781d33c                find_cmd_tbl
 .text.find_cmd
                0x000000008781d3e0       0x28 common/built-in.o
                0x000000008781d3e0                find_cmd
 .text.cmd_usage
                0x000000008781d408       0x5c common/built-in.o
                0x000000008781d408                cmd_usage
 .text._do_help
                0x000000008781d464      0x184 common/built-in.o
                0x000000008781d464                _do_help
 .text.var_complete
                0x000000008781d5e8       0x88 common/built-in.o
                0x000000008781d5e8                var_complete
 .text.cmd_auto_complete
                0x000000008781d670      0x4c4 common/built-in.o
                0x000000008781d670                cmd_auto_complete
 .text.cmd_get_data_size
                0x000000008781db34       0x50 common/built-in.o
                0x000000008781db34                cmd_get_data_size
 .text.cmd_process
                0x000000008781db84       0xec common/built-in.o
                0x000000008781db84                cmd_process
 .text.cmd_process_error
                0x000000008781dc70       0x30 common/built-in.o
                0x000000008781dc70                cmd_process_error
 .text.hex1_bin
                0x000000008781dca0       0x40 common/built-in.o
 .text.hex2_bin
                0x000000008781dce0       0x38 common/built-in.o
 .text.srec_decode
                0x000000008781dd18      0x244 common/built-in.o
                0x000000008781dd18                srec_decode
 .text.CYGACC_COMM_IF_GETC_TIMEOUT.isra.0
                0x000000008781df5c       0x4c common/built-in.o
 .text.xyzModem_flush
                0x000000008781dfa8       0x1c common/built-in.o
 .text.xyzModem_get_hdr
                0x000000008781dfc4      0x21c common/built-in.o
 .text.xyzModem_stream_open
                0x000000008781e1e0      0x214 common/built-in.o
                0x000000008781e1e0                xyzModem_stream_open
 .text.xyzModem_stream_read
                0x000000008781e3f4      0x25c common/built-in.o
                0x000000008781e3f4                xyzModem_stream_read
 .text.xyzModem_stream_close
                0x000000008781e650       0x54 common/built-in.o
                0x000000008781e650                xyzModem_stream_close
 .text.xyzModem_stream_terminate
                0x000000008781e6a4       0x94 common/built-in.o
                0x000000008781e6a4                xyzModem_stream_terminate
 .text.xyzModem_error
                0x000000008781e738       0x1c common/built-in.o
                0x000000008781e738                xyzModem_error
 .text.blk_get_dev
                0x000000008781e754       0x30 disk/built-in.o
                0x000000008781e754                blk_get_dev
 .text.dev_print
                0x000000008781e784      0x230 disk/built-in.o
                0x000000008781e784                dev_print
 .text.part_init
                0x000000008781e9b4       0x50 disk/built-in.o
                0x000000008781e9b4                part_init
 .text.part_print
                0x000000008781ea04      0x138 disk/built-in.o
                0x000000008781ea04                part_print
 .text.part_get_info
                0x000000008781eb3c       0x64 disk/built-in.o
                0x000000008781eb3c                part_get_info
 .text.part_get_info_whole_disk
                0x000000008781eba0       0x4c disk/built-in.o
                0x000000008781eba0                part_get_info_whole_disk
 .text.blk_get_device_by_str
                0x000000008781ebec      0x14c disk/built-in.o
                0x000000008781ebec                blk_get_device_by_str
 .text.blk_get_device_part_str
                0x000000008781ed38      0x3c8 disk/built-in.o
                0x000000008781ed38                blk_get_device_part_str
 .text.part_set_generic_name
                0x000000008781f100       0x4c disk/built-in.o
                0x000000008781f100                part_set_generic_name
 .text.test_block_type
                0x000000008781f14c       0x84 disk/built-in.o
 .text.print_partition_extended
                0x000000008781f1d0      0x274 disk/built-in.o
 .text.part_print_dos
                0x000000008781f444       0x34 disk/built-in.o
                0x000000008781f444                part_print_dos
 .text.part_test_dos
                0x000000008781f478       0x70 disk/built-in.o
 .text.part_get_info_extended.constprop.1
                0x000000008781f4e8      0x280 disk/built-in.o
 .text.part_get_info_dos
                0x000000008781f768       0x20 disk/built-in.o
                0x000000008781f768                part_get_info_dos
 .text.print_efiname
                0x000000008781f788       0x88 disk/built-in.o
 .text.part_test_efi
                0x000000008781f810       0xcc disk/built-in.o
 *fill*         0x000000008781f8dc        0x4 
 .text.validate_gpt_header
                0x000000008781f8e0      0x228 disk/built-in.o
 .text.is_gpt_valid
                0x000000008781fb08      0x308 disk/built-in.o
 .text.is_pte_valid
                0x000000008781fe10       0x58 disk/built-in.o
 .text.part_print_efi
                0x000000008781fe68      0x284 disk/built-in.o
                0x000000008781fe68                part_print_efi
 .text.part_get_info_efi
                0x00000000878200ec      0x1bc disk/built-in.o
                0x00000000878200ec                part_get_info_efi
 .text.is_valid_gpt_buf
                0x00000000878202a8       0xc0 disk/built-in.o
                0x00000000878202a8                is_valid_gpt_buf
 .text.write_backup_gpt_partitions
                0x0000000087820368      0x324 disk/built-in.o
                0x0000000087820368                write_backup_gpt_partitions
 .text.device_bind_common.isra.0
                0x000000008782068c      0x314 drivers/built-in.o
 .text.alloc_priv
                0x00000000878209a0       0x54 drivers/built-in.o
 .text.device_bind_by_name
                0x00000000878209f4       0x70 drivers/built-in.o
                0x00000000878209f4                device_bind_by_name
 .text.device_probe
                0x0000000087820a64      0x220 drivers/built-in.o
                0x0000000087820a64                device_probe
 .text.dev_get_platdata
                0x0000000087820c84       0x30 drivers/built-in.o
                0x0000000087820c84                dev_get_platdata
 .text.dev_get_priv
                0x0000000087820cb4       0x30 drivers/built-in.o
                0x0000000087820cb4                dev_get_priv
 .text.lists_driver_lookup_name
                0x0000000087820ce4       0x48 drivers/built-in.o
                0x0000000087820ce4                lists_driver_lookup_name
 .text.lists_uclass_lookup
                0x0000000087820d2c       0x38 drivers/built-in.o
                0x0000000087820d2c                lists_uclass_lookup
 .text.lists_bind_drivers
                0x0000000087820d64       0x8c drivers/built-in.o
                0x0000000087820d64                lists_bind_drivers
 .text.dm_root  0x0000000087820df0       0x2c drivers/built-in.o
                0x0000000087820df0                dm_root
 .text.dm_init  0x0000000087820e1c       0x58 drivers/built-in.o
                0x0000000087820e1c                dm_init
 .text.dm_remove_devices_flags
                0x0000000087820e74       0x1c drivers/built-in.o
                0x0000000087820e74                dm_remove_devices_flags
 .text.dm_scan_platdata
                0x0000000087820e90       0x2c drivers/built-in.o
                0x0000000087820e90                dm_scan_platdata
 .text.dm_scan_other
                0x0000000087820ebc        0x8 drivers/built-in.o
                0x0000000087820ebc                dm_scan_other
 .text.dm_init_and_scan
                0x0000000087820ec4       0x34 drivers/built-in.o
                0x0000000087820ec4                dm_init_and_scan
 .text.uclass_find
                0x0000000087820ef8       0x4c drivers/built-in.o
                0x0000000087820ef8                uclass_find
 .text.uclass_get
                0x0000000087820f44      0x118 drivers/built-in.o
                0x0000000087820f44                uclass_get
 .text.uclass_find_device
                0x000000008782105c       0x74 drivers/built-in.o
                0x000000008782105c                uclass_find_device
 .text.uclass_find_device_by_seq
                0x00000000878210d0       0x7c drivers/built-in.o
                0x00000000878210d0                uclass_find_device_by_seq
 .text.uclass_get_device_tail
                0x000000008782114c       0x30 drivers/built-in.o
                0x000000008782114c                uclass_get_device_tail
 .text.uclass_get_device
                0x000000008782117c       0x30 drivers/built-in.o
                0x000000008782117c                uclass_get_device
 .text.uclass_bind_device
                0x00000000878211ac       0x7c drivers/built-in.o
                0x00000000878211ac                uclass_bind_device
 .text.uclass_unbind_device
                0x0000000087821228       0x4c drivers/built-in.o
                0x0000000087821228                uclass_unbind_device
 .text.uclass_resolve_seq
                0x0000000087821274       0xb4 drivers/built-in.o
                0x0000000087821274                uclass_resolve_seq
 .text.uclass_pre_probe_device
                0x0000000087821328       0x60 drivers/built-in.o
                0x0000000087821328                uclass_pre_probe_device
 .text.uclass_post_probe_device
                0x0000000087821388       0x20 drivers/built-in.o
                0x0000000087821388                uclass_post_probe_device
 .text.uclass_pre_remove_device
                0x00000000878213a8       0x20 drivers/built-in.o
                0x00000000878213a8                uclass_pre_remove_device
 .text.dm_warn  0x00000000878213c8       0x28 drivers/built-in.o
                0x00000000878213c8                dm_warn
 .text.device_free
                0x00000000878213f0       0x90 drivers/built-in.o
                0x00000000878213f0                device_free
 .text.device_remove
                0x0000000087821480      0x168 drivers/built-in.o
                0x0000000087821480                device_remove
 .text.show_devices
                0x00000000878215e8       0xec drivers/built-in.o
 .text.dm_dump_all
                0x00000000878216d4       0x3c drivers/built-in.o
                0x00000000878216d4                dm_dump_all
 .text.dm_dump_uclass
                0x0000000087821710       0xec drivers/built-in.o
                0x0000000087821710                dm_dump_uclass
 .text.get_desc
                0x00000000878217fc       0x6c drivers/built-in.o
 .text.blk_driver_lookup_type
                0x0000000087821868       0x38 drivers/built-in.o
                0x0000000087821868                blk_driver_lookup_type
 .text.blk_get_if_type_name
                0x00000000878218a0       0x14 drivers/built-in.o
                0x00000000878218a0                blk_get_if_type_name
 .text.blk_list_part
                0x00000000878218b4       0x90 drivers/built-in.o
                0x00000000878218b4                blk_list_part
 .text.blk_print_part_devnum
                0x0000000087821944       0x50 drivers/built-in.o
                0x0000000087821944                blk_print_part_devnum
 .text.blk_list_devices
                0x0000000087821994       0x74 drivers/built-in.o
                0x0000000087821994                blk_list_devices
 .text.blk_print_device_num
                0x0000000087821a08       0x54 drivers/built-in.o
                0x0000000087821a08                blk_print_device_num
 .text.blk_show_device
                0x0000000087821a5c       0x84 drivers/built-in.o
                0x0000000087821a5c                blk_show_device
 .text.blk_get_devnum_by_type
                0x0000000087821ae0       0x3c drivers/built-in.o
                0x0000000087821ae0                blk_get_devnum_by_type
 .text.blk_dselect_hwpart
                0x0000000087821b1c       0x48 drivers/built-in.o
                0x0000000087821b1c                blk_dselect_hwpart
 .text.blk_get_devnum_by_typename
                0x0000000087821b64       0x68 drivers/built-in.o
                0x0000000087821b64                blk_get_devnum_by_typename
 .text.blk_read_devnum
                0x0000000087821bcc       0x54 drivers/built-in.o
                0x0000000087821bcc                blk_read_devnum
 .text.blk_write_devnum
                0x0000000087821c20       0x54 drivers/built-in.o
                0x0000000087821c20                blk_write_devnum
 .text.blk_select_hwpart_devnum
                0x0000000087821c74       0x48 drivers/built-in.o
                0x0000000087821c74                blk_select_hwpart_devnum
 .text.finish_access
                0x0000000087821cbc       0x34 drivers/built-in.o
 .text.wait_busy
                0x0000000087821cf0       0x28 drivers/built-in.o
 .text.prepare_access
                0x0000000087821d18       0xd4 drivers/built-in.o
 .text.set_timing
                0x0000000087821dec       0x88 drivers/built-in.o
 .text.fuse_read
                0x0000000087821e74       0x70 drivers/built-in.o
                0x0000000087821e74                fuse_read
 .text.fuse_sense
                0x0000000087821ee4       0xf8 drivers/built-in.o
                0x0000000087821ee4                fuse_sense
 .text.fuse_prog
                0x0000000087821fdc      0x168 drivers/built-in.o
                0x0000000087821fdc                fuse_prog
 .text.fuse_override
                0x0000000087822144       0x64 drivers/built-in.o
                0x0000000087822144                fuse_override
 .text.mmc_set_ios
                0x00000000878221a8       0x20 drivers/built-in.o
 .text.mmc_set_capacity
                0x00000000878221c8       0xb0 drivers/built-in.o
 .text.board_mmc_getwp
                0x0000000087822278        0x8 drivers/built-in.o
                0x0000000087822278                board_mmc_getwp
 .text.mmc_getwp
                0x0000000087822280       0x3c drivers/built-in.o
                0x0000000087822280                mmc_getwp
 .text.mmc_mode_name
                0x00000000878222bc       0x1c drivers/built-in.o
                0x00000000878222bc                mmc_mode_name
 .text.mmc_send_cmd
                0x00000000878222d8       0x10 drivers/built-in.o
                0x00000000878222d8                mmc_send_cmd
 .text.mmc_send_ext_csd
                0x00000000878222e8       0x4c drivers/built-in.o
 .text.mmc_read_and_compare_ext_csd
                0x0000000087822334       0xa8 drivers/built-in.o
 .text.mmc_go_idle
                0x00000000878223dc       0x4c drivers/built-in.o
 .text.mmc_send_op_cond_iter
                0x0000000087822428       0x78 drivers/built-in.o
 .text.mmc_send_status
                0x00000000878224a0       0xcc drivers/built-in.o
                0x00000000878224a0                mmc_send_status
 .text.__mmc_switch.isra.5.constprop.14
                0x000000008782256c       0x68 drivers/built-in.o
 .text.mmc_set_card_speed.constprop.13
                0x00000000878225d4       0xa4 drivers/built-in.o
 .text.mmc_startup_v4
                0x0000000087822678      0x330 drivers/built-in.o
 .text.mmc_set_blocklen
                0x00000000878229a8       0x84 drivers/built-in.o
                0x00000000878229a8                mmc_set_blocklen
 .text.mmc_bread
                0x0000000087822a2c      0x164 drivers/built-in.o
                0x0000000087822a2c                mmc_bread
 .text.mmc_switch
                0x0000000087822b90        0xc drivers/built-in.o
                0x0000000087822b90                mmc_switch
 .text.mmc_switch_part
                0x0000000087822b9c       0x60 drivers/built-in.o
                0x0000000087822b9c                mmc_switch_part
 .text.mmc_hwpart_config
                0x0000000087822bfc      0x404 drivers/built-in.o
                0x0000000087822bfc                mmc_hwpart_config
 .text.mmc_getcd
                0x0000000087823000       0x3c drivers/built-in.o
                0x0000000087823000                mmc_getcd
 .text.sd_select_bus_width
                0x000000008782303c       0x94 drivers/built-in.o
                0x000000008782303c                sd_select_bus_width
 .text.mmc_set_clock
                0x00000000878230d0       0x30 drivers/built-in.o
                0x00000000878230d0                mmc_set_clock
 .text.mmc_startup
                0x0000000087823100      0xbc8 drivers/built-in.o
 .text.mmc_dump_capabilities
                0x0000000087823cc8        0x4 drivers/built-in.o
                0x0000000087823cc8                mmc_dump_capabilities
 .text.board_mmc_power_init
                0x0000000087823ccc        0x4 drivers/built-in.o
                0x0000000087823ccc                board_mmc_power_init
 .text.mmc_start_init
                0x0000000087823cd0      0x298 drivers/built-in.o
                0x0000000087823cd0                mmc_start_init
 .text.mmc_init
                0x0000000087823f68      0x100 drivers/built-in.o
                0x0000000087823f68                mmc_init
 .text.mmc_set_dsr
                0x0000000087824068        0xc drivers/built-in.o
                0x0000000087824068                mmc_set_dsr
 .text.mmc_initialize
                0x0000000087824074       0x5c drivers/built-in.o
                0x0000000087824074                mmc_initialize
 .text.mmc_berase
                0x00000000878240d0      0x1b8 drivers/built-in.o
                0x00000000878240d0                mmc_berase
 .text.mmc_bwrite
                0x0000000087824288      0x188 drivers/built-in.o
                0x0000000087824288                mmc_bwrite
 .text.find_mmc_device
                0x0000000087824410       0x50 drivers/built-in.o
                0x0000000087824410                find_mmc_device
 .text.mmc_select_hwpartp
                0x0000000087824460       0x54 drivers/built-in.o
 .text.mmc_get_dev
                0x00000000878244b4       0x30 drivers/built-in.o
 .text.mmc_get_next_devnum
                0x00000000878244e4       0x18 drivers/built-in.o
                0x00000000878244e4                mmc_get_next_devnum
 .text.mmc_get_blk_desc
                0x00000000878244fc        0x8 drivers/built-in.o
                0x00000000878244fc                mmc_get_blk_desc
 .text.get_mmc_num
                0x0000000087824504       0x10 drivers/built-in.o
                0x0000000087824504                get_mmc_num
 .text.mmc_do_preinit
                0x0000000087824514       0x38 drivers/built-in.o
                0x0000000087824514                mmc_do_preinit
 .text.mmc_list_init
                0x000000008782454c       0x24 drivers/built-in.o
                0x000000008782454c                mmc_list_init
 .text.mmc_list_add
                0x0000000087824570       0x24 drivers/built-in.o
                0x0000000087824570                mmc_list_add
 .text.print_mmc_devices
                0x0000000087824594       0xc0 drivers/built-in.o
                0x0000000087824594                print_mmc_devices
 .text.mmc_create
                0x0000000087824654       0xd0 drivers/built-in.o
                0x0000000087824654                mmc_create
 .text.mmc_boot_partition_size_change
                0x0000000087824724       0xc4 drivers/built-in.o
                0x0000000087824724                mmc_boot_partition_size_change
 .text.mmc_set_boot_bus_width
                0x00000000878247e8       0x18 drivers/built-in.o
                0x00000000878247e8                mmc_set_boot_bus_width
 .text.mmc_set_part_conf
                0x0000000087824800       0x30 drivers/built-in.o
                0x0000000087824800                mmc_set_part_conf
 .text.mmc_set_rst_n_function
                0x0000000087824830       0x10 drivers/built-in.o
                0x0000000087824830                mmc_set_rst_n_function
 .text.esdhc_set_ios
                0x0000000087824840      0x160 drivers/built-in.o
 .text.esdhc_init
                0x00000000878249a0       0xc8 drivers/built-in.o
 .text.esdhc_getcd
                0x0000000087824a68       0x40 drivers/built-in.o
 .text.check_and_invalidate_dcache_range.isra.2
                0x0000000087824aa8       0x30 drivers/built-in.o
 .text.esdhc_send_cmd
                0x0000000087824ad8      0x424 drivers/built-in.o
 .text.fsl_esdhc_initialize
                0x0000000087824efc      0x248 drivers/built-in.o
                0x0000000087824efc                fsl_esdhc_initialize
 .text.fsl_esdhc_mmc_init
                0x0000000087825144       0x34 drivers/built-in.o
                0x0000000087825144                fsl_esdhc_mmc_init
 .text.video_drawchars
                0x0000000087825178      0x448 drivers/built-in.o
 .text.video_invertchar
                0x00000000878255c0       0x78 drivers/built-in.o
 .text.draw_bitmap
                0x0000000087825638       0xdc drivers/built-in.o
 .text.console_cursor.part.0
                0x0000000087825714       0x28 drivers/built-in.o
 .text.console_newline.constprop.3
                0x000000008782573c       0xe4 drivers/built-in.o
 .text.board_cfb_skip
                0x0000000087825820        0x8 drivers/built-in.o
                0x0000000087825820                board_cfb_skip
 .text.console_cursor
                0x0000000087825828       0xa4 drivers/built-in.o
                0x0000000087825828                console_cursor
 .text.cfb_video_putc
                0x00000000878258cc      0x1a0 drivers/built-in.o
 .text.cfb_video_puts
                0x0000000087825a6c       0x7c drivers/built-in.o
 .text.video_set_lut
                0x0000000087825ae8        0x4 drivers/built-in.o
                0x0000000087825ae8                video_set_lut
 .text.display_rle8_bitmap
                0x0000000087825aec      0x380 drivers/built-in.o
 .text.plot_logo_or_black
                0x0000000087825e6c      0x290 drivers/built-in.o
 .text.do_clrlogo
                0x00000000878260fc       0x44 drivers/built-in.o
 .text.video_display_bitmap
                0x0000000087826140      0x978 drivers/built-in.o
                0x0000000087826140                video_display_bitmap
 .text.video_clear
                0x0000000087826ab8       0x54 drivers/built-in.o
                0x0000000087826ab8                video_clear
 .text.drv_video_init
                0x0000000087826b0c      0x4e0 drivers/built-in.o
                0x0000000087826b0c                drv_video_init
 .text.mxsfb_system_setup
                0x0000000087826fec        0x4 drivers/built-in.o
                0x0000000087826fec                mxsfb_system_setup
 .text.mxs_lcd_panel_setup
                0x0000000087826ff0       0x78 drivers/built-in.o
                0x0000000087826ff0                mxs_lcd_panel_setup
 .text.lcdif_power_down
                0x0000000087827068       0x74 drivers/built-in.o
                0x0000000087827068                lcdif_power_down
 .text.video_hw_init
                0x00000000878270dc      0x350 drivers/built-in.o
                0x00000000878270dc                video_hw_init
 .text.video_get_param_len.constprop.1
                0x000000008782742c       0x20 drivers/built-in.o
 .text.video_get_params
                0x000000008782744c      0x4e8 drivers/built-in.o
                0x000000008782744c                video_get_params
 .text.thermal_get_temp
                0x0000000087827934       0x20 drivers/built-in.o
                0x0000000087827934                thermal_get_temp
 .text.read_cpu_temperature
                0x0000000087827954       0xe8 drivers/built-in.o
 .text.imx_thermal_get_temp
                0x0000000087827a3c       0x74 drivers/built-in.o
                0x0000000087827a3c                imx_thermal_get_temp
 .text.imx_thermal_probe
                0x0000000087827ab0       0xc0 drivers/built-in.o
 .text.mxc_gpio_direction
                0x0000000087827b70       0x8c drivers/gpio/built-in.o
 .text.gpio_set_value
                0x0000000087827bfc       0x8c drivers/gpio/built-in.o
                0x0000000087827bfc                gpio_set_value
 .text.gpio_get_value
                0x0000000087827c88       0x70 drivers/gpio/built-in.o
                0x0000000087827c88                gpio_get_value
 .text.gpio_request
                0x0000000087827cf8       0x3c drivers/gpio/built-in.o
                0x0000000087827cf8                gpio_request
 .text.gpio_free
                0x0000000087827d34        0x8 drivers/gpio/built-in.o
                0x0000000087827d34                gpio_free
 .text.gpio_direction_input
                0x0000000087827d3c        0x8 drivers/gpio/built-in.o
                0x0000000087827d3c                gpio_direction_input
 .text.gpio_direction_output
                0x0000000087827d44       0x24 drivers/gpio/built-in.o
                0x0000000087827d44                gpio_direction_output
 .text.i2c_get_adapter
                0x0000000087827d68       0x60 drivers/i2c/built-in.o
                0x0000000087827d68                i2c_get_adapter
 .text.i2c_init_bus
                0x0000000087827dc8       0x90 drivers/i2c/built-in.o
 .text.i2c_get_bus_num
                0x0000000087827e58        0x8 drivers/i2c/built-in.o
                0x0000000087827e58                i2c_get_bus_num
 .text.i2c_set_bus_num
                0x0000000087827e60       0xb8 drivers/i2c/built-in.o
                0x0000000087827e60                i2c_set_bus_num
 .text.i2c_init_all
                0x0000000087827f18       0x14 drivers/i2c/built-in.o
                0x0000000087827f18                i2c_init_all
 .text.i2c_probe
                0x0000000087827f2c       0x2c drivers/i2c/built-in.o
                0x0000000087827f2c                i2c_probe
 .text.i2c_read
                0x0000000087827f58       0x4c drivers/i2c/built-in.o
                0x0000000087827f58                i2c_read
 .text.i2c_write
                0x0000000087827fa4       0x4c drivers/i2c/built-in.o
                0x0000000087827fa4                i2c_write
 .text.i2c_set_bus_speed
                0x0000000087827ff0       0x64 drivers/i2c/built-in.o
                0x0000000087827ff0                i2c_set_bus_speed
 .text.i2c_get_bus_speed
                0x0000000087828054       0x14 drivers/i2c/built-in.o
                0x0000000087828054                i2c_get_bus_speed
 .text.i2c_init
                0x0000000087828068       0x14 drivers/i2c/built-in.o
                0x0000000087828068                i2c_init
 .text.wait_for_sr_state
                0x000000008782807c      0x110 drivers/i2c/built-in.o
 .text.tx_byte  0x000000008782818c       0x58 drivers/i2c/built-in.o
 .text.bus_i2c_set_bus_speed
                0x00000000878281e4       0xc0 drivers/i2c/built-in.o
 .text.mxc_i2c_set_bus_speed
                0x00000000878282a4       0x18 drivers/i2c/built-in.o
 .text.i2c_imx_stop
                0x00000000878282bc       0x58 drivers/i2c/built-in.o
 .text.__i2c_force_reset_slave
                0x0000000087828314        0x4 drivers/i2c/built-in.o
                0x0000000087828314                __i2c_force_reset_slave
                0x0000000087828314                i2c_force_reset_slave
 .text.i2c_idle_bus
                0x0000000087828318       0x24 drivers/i2c/built-in.o
                0x0000000087828318                i2c_idle_bus
 .text.i2c_init_transfer
                0x000000008782833c      0x228 drivers/i2c/built-in.o
 .text.mxc_i2c_probe
                0x0000000087828564       0x40 drivers/i2c/built-in.o
 .text.mxc_i2c_read
                0x00000000878285a4      0x1cc drivers/i2c/built-in.o
 .text.mxc_i2c_write
                0x0000000087828770       0x6c drivers/i2c/built-in.o
 .text.bus_i2c_init
                0x00000000878287dc       0x70 drivers/i2c/built-in.o
                0x00000000878287dc                bus_i2c_init
 .text.mxc_i2c_init
                0x000000008782884c       0x1c drivers/i2c/built-in.o
 .text.fec_set_hwaddr
                0x0000000087828868       0x90 drivers/net/built-in.o
 .text.fec_reg_setup
                0x00000000878288f8       0x6c drivers/net/built-in.o
 .text.fec_phy_write
                0x0000000087828964       0x8c drivers/net/built-in.o
 .text.fec_phy_read
                0x00000000878289f0       0x94 drivers/net/built-in.o
 .text.fec_mii_setspeed
                0x0000000087828a84       0x60 drivers/net/built-in.o
 .text.fec_halt
                0x0000000087828ae4       0x7c drivers/net/built-in.o
 .text.fec_send
                0x0000000087828b60      0x14c drivers/net/built-in.o
 .text.fec_init
                0x0000000087828cac      0x318 drivers/net/built-in.o
 .text.fec_recv
                0x0000000087828fc4      0x220 drivers/net/built-in.o
 .text.fec_get_miibus
                0x00000000878291e4       0xa4 drivers/net/built-in.o
                0x00000000878291e4                fec_get_miibus
 .text.init_clk_fec
                0x0000000087829288        0x4 drivers/net/built-in.o
                0x0000000087829288                init_clk_fec
 .text.fec_probe
                0x000000008782928c      0x39c drivers/net/built-in.o
                0x000000008782928c                fec_probe
 .text.fecmxc_initialize_multi
                0x0000000087829628       0xa8 drivers/net/built-in.o
                0x0000000087829628                fecmxc_initialize_multi
 .text.fecmxc_initialize
                0x00000000878296d0       0x14 drivers/net/built-in.o
                0x00000000878296d0                fecmxc_initialize
 .text.genphy_shutdown
                0x00000000878296e4        0x8 drivers/net/phy/built-in.o
                0x00000000878296e4                genphy_shutdown
 .text.genphy_restart_aneg
                0x00000000878296ec       0x5c drivers/net/phy/built-in.o
                0x00000000878296ec                genphy_restart_aneg
 .text.genphy_config_aneg
                0x0000000087829748      0x1fc drivers/net/phy/built-in.o
                0x0000000087829748                genphy_config_aneg
 .text.genphy_config
                0x0000000087829944       0xc4 drivers/net/phy/built-in.o
                0x0000000087829944                genphy_config
 .text.genphy_update_link
                0x0000000087829a08      0x144 drivers/net/phy/built-in.o
                0x0000000087829a08                genphy_update_link
 .text.genphy_parse_link
                0x0000000087829b4c      0x198 drivers/net/phy/built-in.o
                0x0000000087829b4c                genphy_parse_link
 .text.genphy_startup
                0x0000000087829ce4       0x20 drivers/net/phy/built-in.o
                0x0000000087829ce4                genphy_startup
 .text.phy_init
                0x0000000087829d04       0x10 drivers/net/phy/built-in.o
                0x0000000087829d04                phy_init
 .text.phy_register
                0x0000000087829d14       0x28 drivers/net/phy/built-in.o
                0x0000000087829d14                phy_register
 .text.get_phy_id
                0x0000000087829d3c       0x70 drivers/net/phy/built-in.o
                0x0000000087829d3c                get_phy_id
 .text.get_phy_device_by_mask
                0x0000000087829dac      0x298 drivers/net/phy/built-in.o
 .text.phy_reset
                0x000000008782a044       0xbc drivers/net/phy/built-in.o
                0x000000008782a044                phy_reset
 .text.phy_find_by_mask
                0x000000008782a100       0x4c drivers/net/phy/built-in.o
                0x000000008782a100                phy_find_by_mask
 .text.phy_connect_dev
                0x000000008782a14c       0x48 drivers/net/phy/built-in.o
                0x000000008782a14c                phy_connect_dev
 .text.phy_startup
                0x000000008782a194       0x1c drivers/net/phy/built-in.o
                0x000000008782a194                phy_startup
 .text.phy_config
                0x000000008782a1b0        0x4 drivers/net/phy/built-in.o
                0x000000008782a1b0                phy_config
 .text.bcm_phy_write_misc
                0x000000008782a1b4       0xbc drivers/net/phy/built-in.o
 .text.bcm_cygnus_startup
                0x000000008782a270       0x20 drivers/net/phy/built-in.o
 .text.bcm5461_config
                0x000000008782a290       0x1c drivers/net/phy/built-in.o
 .text.bcm_cygnus_config
                0x000000008782a2ac      0x184 drivers/net/phy/built-in.o
 .text.bcm54xx_parse_status
                0x000000008782a430       0xac drivers/net/phy/built-in.o
 .text.bcm54xx_startup
                0x000000008782a4dc       0x20 drivers/net/phy/built-in.o
 .text.bcm5482_startup
                0x000000008782a4fc      0x158 drivers/net/phy/built-in.o
 .text.bcm5482_config
                0x000000008782a654      0x148 drivers/net/phy/built-in.o
 .text.phy_broadcom_init
                0x000000008782a79c       0x3c drivers/net/phy/built-in.o
                0x000000008782a79c                phy_broadcom_init
 .text.check_reg
                0x000000008782a7d8       0x2c drivers/power/built-in.o
                0x000000008782a7d8                check_reg
 .text.pmic_alloc
                0x000000008782a804       0x58 drivers/power/built-in.o
                0x000000008782a804                pmic_alloc
 .text.pmic_get
                0x000000008782a85c       0x54 drivers/power/built-in.o
                0x000000008782a85c                pmic_get
 .text.do_pmic  0x000000008782a8b0      0x30c drivers/power/built-in.o
 .text.pmic_reg_write
                0x000000008782abbc       0xd8 drivers/power/built-in.o
                0x000000008782abbc                pmic_reg_write
 .text.pmic_reg_read
                0x000000008782ac94       0xf4 drivers/power/built-in.o
                0x000000008782ac94                pmic_reg_read
 .text.pmic_probe
                0x000000008782ad88       0x38 drivers/power/built-in.o
                0x000000008782ad88                pmic_probe
 .text.power_pfuze3000_init
                0x000000008782adc0       0x64 drivers/power/pmic/built-in.o
                0x000000008782adc0                power_pfuze3000_init
 .text.serial_stub_start
                0x000000008782ae24        0xc drivers/serial/built-in.o
 .text.serial_stub_stop
                0x000000008782ae30        0xc drivers/serial/built-in.o
 .text.serial_stub_putc
                0x000000008782ae3c       0x10 drivers/serial/built-in.o
 .text.serial_stub_puts
                0x000000008782ae4c       0x10 drivers/serial/built-in.o
 .text.serial_stub_getc
                0x000000008782ae5c        0xc drivers/serial/built-in.o
 .text.serial_stub_tstc
                0x000000008782ae68        0xc drivers/serial/built-in.o
 .text.get_current
                0x000000008782ae74       0x40 drivers/serial/built-in.o
 .text.serial_null
                0x000000008782aeb4        0x4 drivers/serial/built-in.o
                0x000000008782aeb4                jz_serial_initialize
                0x000000008782aeb4                bfin_serial_initialize
                0x000000008782aeb4                p3mx_serial_initialize
                0x000000008782aeb4                leon2_serial_initialize
                0x000000008782aeb4                leon3_serial_initialize
                0x000000008782aeb4                stm32_serial_initialize
                0x000000008782aeb4                amirix_serial_initialize
                0x000000008782aeb4                marvell_serial_initialize
                0x000000008782aeb4                cpci750_serial_initialize
                0x000000008782aeb4                ns16550_serial_initialize
                0x000000008782aeb4                asc_serial_initialize
                0x000000008782aeb4                sh_serial_initialize
                0x000000008782aeb4                oc_serial_initialize
                0x000000008782aeb4                serial_lpuart_initialize
                0x000000008782aeb4                mxs_auart_initialize
                0x000000008782aeb4                xen_debug_serial_initialize
                0x000000008782aeb4                arm_dcc_initialize
                0x000000008782aeb4                bmw_serial_initialize
                0x000000008782aeb4                arc_serial_initialize
                0x000000008782aeb4                mcf_serial_initialize
                0x000000008782aeb4                lh7a40x_serial_initialize
                0x000000008782aeb4                evb64260_serial_initialize
                0x000000008782aeb4                lpc32xx_serial_initialize
                0x000000008782aeb4                max3100_serial_initialize
                0x000000008782aeb4                mpc85xx_serial_initialize
                0x000000008782aeb4                imx_serial_initialize
                0x000000008782aeb4                bfin_jtag_initialize
                0x000000008782aeb4                cogent_serial_initialize
                0x000000008782aeb4                clps7111_serial_initialize
                0x000000008782aeb4                ml2_serial_initialize
                0x000000008782aeb4                sandbox_serial_initialize
                0x000000008782aeb4                s3c24xx_serial_initialize
                0x000000008782aeb4                sconsole_serial_initialize
                0x000000008782aeb4                uartlite_serial_initialize
                0x000000008782aeb4                au1x00_serial_initialize
                0x000000008782aeb4                pxa_serial_initialize
                0x000000008782aeb4                atmel_serial_initialize
                0x000000008782aeb4                pl01x_serial_initialize
                0x000000008782aeb4                s5p_serial_initialize
                0x000000008782aeb4                zynq_serial_initialize
                0x000000008782aeb4                xen_serial_initialize
                0x000000008782aeb4                sa1100_serial_initialize
                0x000000008782aeb4                iop480_serial_initialize
                0x000000008782aeb4                mpc8xx_serial_initialize
 .text.serial_register
                0x000000008782aeb8       0x18 drivers/serial/built-in.o
                0x000000008782aeb8                serial_register
 .text.serial_stdio_init
                0x000000008782aed0       0xa4 drivers/serial/built-in.o
                0x000000008782aed0                serial_stdio_init
 .text.serial_assign
                0x000000008782af74       0x4c drivers/serial/built-in.o
                0x000000008782af74                serial_assign
 .text.serial_initialize
                0x000000008782afc0       0xc4 drivers/serial/built-in.o
                0x000000008782afc0                serial_initialize
 .text.serial_init
                0x000000008782b084       0x20 drivers/serial/built-in.o
                0x000000008782b084                serial_init
 .text.serial_setbrg
                0x000000008782b0a4       0x14 drivers/serial/built-in.o
                0x000000008782b0a4                serial_setbrg
 .text.on_baudrate
                0x000000008782b0b8       0xf4 drivers/serial/built-in.o
 .text.serial_getc
                0x000000008782b1ac       0x14 drivers/serial/built-in.o
                0x000000008782b1ac                serial_getc
 .text.serial_tstc
                0x000000008782b1c0       0x14 drivers/serial/built-in.o
                0x000000008782b1c0                serial_tstc
 .text.serial_putc
                0x000000008782b1d4       0x1c drivers/serial/built-in.o
                0x000000008782b1d4                serial_putc
 .text.serial_puts
                0x000000008782b1f0       0x1c drivers/serial/built-in.o
                0x000000008782b1f0                serial_puts
 .text.default_serial_puts
                0x000000008782b20c       0x2c drivers/serial/built-in.o
                0x000000008782b20c                default_serial_puts
 .text.mxc_serial_getc
                0x000000008782b238       0x28 drivers/serial/built-in.o
 .text.mxc_serial_putc
                0x000000008782b260       0x3c drivers/serial/built-in.o
 .text.mxc_serial_tstc
                0x000000008782b29c       0x6c drivers/serial/built-in.o
 .text.mxc_serial_setbrg
                0x000000008782b308       0x6c drivers/serial/built-in.o
 .text.mxc_serial_init
                0x000000008782b374       0x74 drivers/serial/built-in.o
 .text.mxc_serial_initialize
                0x000000008782b3e8        0xc drivers/serial/built-in.o
                0x000000008782b3e8                mxc_serial_initialize
 .text.default_serial_console
                0x000000008782b3f4        0xc drivers/serial/built-in.o
                0x000000008782b3f4                default_serial_console
 .text.usb_host_eth_scan
                0x000000008782b400      0x1d4 drivers/usb/eth/built-in.o
                0x000000008782b400                usb_host_eth_scan
 .text.asix_halt
                0x000000008782b5d4        0x4 drivers/usb/eth/built-in.o
 .text.asix_send_common
                0x000000008782b5d8       0xa0 drivers/usb/eth/built-in.o
 .text.asix_send
                0x000000008782b678        0x8 drivers/usb/eth/built-in.o
 .text.asix_recv
                0x000000008782b680      0x108 drivers/usb/eth/built-in.o
 .text.asix_write_cmd.isra.0
                0x000000008782b788       0x4c drivers/usb/eth/built-in.o
 .text.asix_write_hwaddr_common
                0x000000008782b7d4       0x48 drivers/usb/eth/built-in.o
 .text.asix_write_hwaddr
                0x000000008782b81c        0xc drivers/usb/eth/built-in.o
 .text.asix_mdio_write
                0x000000008782b828       0x84 drivers/usb/eth/built-in.o
 .text.asix_sw_reset
                0x000000008782b8ac       0x40 drivers/usb/eth/built-in.o
 .text.asix_read_cmd.isra.1
                0x000000008782b8ec       0x50 drivers/usb/eth/built-in.o
 .text.asix_mdio_read
                0x000000008782b93c       0x84 drivers/usb/eth/built-in.o
 .text.asix_read_rx_ctl
                0x000000008782b9c0       0x44 drivers/usb/eth/built-in.o
 .text.asix_init
                0x000000008782ba04       0xec drivers/usb/eth/built-in.o
 .text.asix_eth_before_probe
                0x000000008782baf0       0x14 drivers/usb/eth/built-in.o
                0x000000008782baf0                asix_eth_before_probe
 .text.asix_eth_probe
                0x000000008782bb04      0x188 drivers/usb/eth/built-in.o
                0x000000008782bb04                asix_eth_probe
 .text.asix_eth_get_info
                0x000000008782bc8c      0x328 drivers/usb/eth/built-in.o
                0x000000008782bc8c                asix_eth_get_info
 .text.usb_ep_autoconfig
                0x000000008782bfb4      0x214 drivers/usb/gadget/built-in.o
                0x000000008782bfb4                usb_ep_autoconfig
 .text.usb_ep_autoconfig_reset
                0x000000008782c1c8       0x38 drivers/usb/gadget/built-in.o
                0x000000008782c1c8                usb_ep_autoconfig_reset
 .text.usb_descriptor_fillbuf
                0x000000008782c200       0x64 drivers/usb/gadget/built-in.o
                0x000000008782c200                usb_descriptor_fillbuf
 .text.usb_gadget_get_string
                0x000000008782c264      0x18c drivers/usb/gadget/built-in.o
                0x000000008782c264                usb_gadget_get_string
 .text.ci_ep_disable
                0x000000008782c3f0       0x14 drivers/usb/gadget/built-in.o
 .text.ci_ep_dequeue
                0x000000008782c404       0x88 drivers/usb/gadget/built-in.o
 .text.ci_ep_free_request
                0x000000008782c48c       0x54 drivers/usb/gadget/built-in.o
 .text.ci_ep_alloc_request
                0x000000008782c4e0       0x6c drivers/usb/gadget/built-in.o
 .text.ci_flush_qtd
                0x000000008782c54c       0x18 drivers/usb/gadget/built-in.o
 .text.ci_flush_qh
                0x000000008782c564       0x18 drivers/usb/gadget/built-in.o
 .text.stop_activity
                0x000000008782c57c       0xa0 drivers/usb/gadget/built-in.o
 .text.ep_enable
                0x000000008782c61c       0x58 drivers/usb/gadget/built-in.o
 .text.ci_ep_enable
                0x000000008782c674       0x68 drivers/usb/gadget/built-in.o
 .text.ci_ep_submit_next_request
                0x000000008782c6dc      0x1d8 drivers/usb/gadget/built-in.o
 .text.ci_ep_queue
                0x000000008782c8b4      0x12c drivers/usb/gadget/built-in.o
 .text.udc_irq  0x000000008782c9e0      0x4fc drivers/usb/gadget/built-in.o
                0x000000008782c9e0                udc_irq
 .text.usb_gadget_handle_interrupts
                0x000000008782cedc       0x30 drivers/usb/gadget/built-in.o
                0x000000008782cedc                usb_gadget_handle_interrupts
 .text.udc_disconnect
                0x000000008782cf0c       0x48 drivers/usb/gadget/built-in.o
                0x000000008782cf0c                udc_disconnect
 .text.ci_pullup
                0x000000008782cf54       0x78 drivers/usb/gadget/built-in.o
 .text.usb_gadget_register_driver
                0x000000008782cfcc      0x2d0 drivers/usb/gadget/built-in.o
                0x000000008782cfcc                usb_gadget_register_driver
 .text.usb_gadget_unregister_driver
                0x000000008782d29c       0x58 drivers/usb/gadget/built-in.o
                0x000000008782d29c                usb_gadget_unregister_driver
 .text.count_configs
                0x000000008782d2f4       0x84 drivers/usb/gadget/built-in.o
 .text.collect_langs
                0x000000008782d378       0x4c drivers/usb/gadget/built-in.o
 .text.composite_setup_complete
                0x000000008782d3c4        0x4 drivers/usb/gadget/built-in.o
 .text.count_ext_prop
                0x000000008782d3c8       0x6c drivers/usb/gadget/built-in.o
 .text.len_ext_prop
                0x000000008782d434       0x6c drivers/usb/gadget/built-in.o
 .text.composite_suspend
                0x000000008782d4a0       0x80 drivers/usb/gadget/built-in.o
 .text.composite_resume
                0x000000008782d520       0x7c drivers/usb/gadget/built-in.o
 .text.g_dnl_unbind
                0x000000008782d59c       0x30 drivers/usb/gadget/built-in.o
 .text.lookup_string
                0x000000008782d5cc       0x4c drivers/usb/gadget/built-in.o
 .text.composite_unbind
                0x000000008782d618      0x12c drivers/usb/gadget/built-in.o
 .text.composite_bind
                0x000000008782d744      0x204 drivers/usb/gadget/built-in.o
 .text.g_dnl_do_config
                0x000000008782d948       0x4c drivers/usb/gadget/built-in.o
 .text.reset_config.isra.0
                0x000000008782d994       0x58 drivers/usb/gadget/built-in.o
 .text.composite_disconnect
                0x000000008782d9ec       0x40 drivers/usb/gadget/built-in.o
 .text.count_ext_compat
                0x000000008782da2c       0x9c drivers/usb/gadget/built-in.o
 .text.composite_setup
                0x000000008782dac8     0x1030 drivers/usb/gadget/built-in.o
 .text.usb_add_function
                0x000000008782eaf8       0xe8 drivers/usb/gadget/built-in.o
                0x000000008782eaf8                usb_add_function
 .text.usb_interface_id
                0x000000008782ebe0       0x28 drivers/usb/gadget/built-in.o
                0x000000008782ebe0                usb_interface_id
 .text.usb_add_config
                0x000000008782ec08      0x10c drivers/usb/gadget/built-in.o
                0x000000008782ec08                usb_add_config
 .text.usb_string_id
                0x000000008782ed14       0x20 drivers/usb/gadget/built-in.o
                0x000000008782ed14                usb_string_id
 .text.usb_composite_register
                0x000000008782ed34       0x7c drivers/usb/gadget/built-in.o
                0x000000008782ed34                usb_composite_register
 .text.usb_composite_unregister
                0x000000008782edb0       0x30 drivers/usb/gadget/built-in.o
                0x000000008782edb0                usb_composite_unregister
 .text.g_dnl_set_serialnumber
                0x000000008782ede0       0x34 drivers/usb/gadget/built-in.o
                0x000000008782ede0                g_dnl_set_serialnumber
 .text.on_serialno
                0x000000008782ee14       0x14 drivers/usb/gadget/built-in.o
 .text.g_dnl_bind_fixup
                0x000000008782ee28        0x8 drivers/usb/gadget/built-in.o
                0x000000008782ee28                g_dnl_bind_fixup
 .text.g_dnl_get_board_bcd_device_number
                0x000000008782ee30        0x4 drivers/usb/gadget/built-in.o
                0x000000008782ee30                g_dnl_get_board_bcd_device_number
 .text.g_dnl_bind
                0x000000008782ee34      0x164 drivers/usb/gadget/built-in.o
 .text.g_dnl_board_usb_cable_connected
                0x000000008782ef98        0x8 drivers/usb/gadget/built-in.o
                0x000000008782ef98                g_dnl_board_usb_cable_connected
 .text.g_dnl_detach
                0x000000008782efa0       0x10 drivers/usb/gadget/built-in.o
                0x000000008782efa0                g_dnl_detach
 .text.g_dnl_trigger_detach
                0x000000008782efb0       0x14 drivers/usb/gadget/built-in.o
                0x000000008782efb0                g_dnl_trigger_detach
 .text.g_dnl_clear_detach
                0x000000008782efc4       0x14 drivers/usb/gadget/built-in.o
                0x000000008782efc4                g_dnl_clear_detach
 .text.g_dnl_register
                0x000000008782efd8       0x40 drivers/usb/gadget/built-in.o
                0x000000008782efd8                g_dnl_register
 .text.g_dnl_unregister
                0x000000008782f018        0xc drivers/usb/gadget/built-in.o
                0x000000008782f018                g_dnl_unregister
 .text.raise_exception
                0x000000008782f024       0x20 drivers/usb/gadget/built-in.o
 .text.ep0_queue
                0x000000008782f044       0x2c drivers/usb/gadget/built-in.o
 .text.bulk_in_complete
                0x000000008782f070       0x44 drivers/usb/gadget/built-in.o
 .text.bulk_out_complete
                0x000000008782f0b4       0x44 drivers/usb/gadget/built-in.o
 .text.fsg_set_alt
                0x000000008782f0f8       0x20 drivers/usb/gadget/built-in.o
 .text.fsg_disable
                0x000000008782f118       0x14 drivers/usb/gadget/built-in.o
 .text.fsg_setup
                0x000000008782f12c       0xf8 drivers/usb/gadget/built-in.o
 .text.fsg_unbind
                0x000000008782f224       0x44 drivers/usb/gadget/built-in.o
 .text.store_cdrom_address
                0x000000008782f268       0x7c drivers/usb/gadget/built-in.o
 .text.fsg_set_halt.isra.7
                0x000000008782f2e4       0x10 drivers/usb/gadget/built-in.o
 .text.start_transfer.isra.9
                0x000000008782f2f4       0x40 drivers/usb/gadget/built-in.o
 .text.halt_bulk_in_endpoint.isra.14
                0x000000008782f334       0x38 drivers/usb/gadget/built-in.o
 .text.sleep_thread.isra.17
                0x000000008782f36c      0x10c drivers/usb/gadget/built-in.o
 .text.do_read  0x000000008782f478      0x25c drivers/usb/gadget/built-in.o
 .text.do_write
                0x000000008782f6d4      0x364 drivers/usb/gadget/built-in.o
 .text.send_status
                0x000000008782fa38      0x108 drivers/usb/gadget/built-in.o
 .text.check_command.isra.18
                0x000000008782fb40      0x17c drivers/usb/gadget/built-in.o
 .text.do_mode_sense.isra.20
                0x000000008782fcbc      0x180 drivers/usb/gadget/built-in.o
 .text.fsg_add  0x000000008782fe3c      0x2ec drivers/usb/gadget/built-in.o
                0x000000008782fe3c                fsg_add
 .text.do_set_interface
                0x0000000087830128      0x24c drivers/usb/gadget/built-in.o
 .text.fsg_main_thread
                0x0000000087830374     0x12b4 drivers/usb/gadget/built-in.o
                0x0000000087830374                fsg_main_thread
 .text.usb_copy_descriptors
                0x0000000087831628       0x88 drivers/usb/gadget/built-in.o
                0x0000000087831628                usb_copy_descriptors
 .text.fsg_bind
                0x00000000878316b0       0xf4 drivers/usb/gadget/built-in.o
 .text.fsg_init
                0x00000000878317a4       0x2c drivers/usb/gadget/built-in.o
                0x00000000878317a4                fsg_init
 .text.mmc_sparse_reserve
                0x00000000878317d0        0x8 drivers/usb/gadget/built-in.o
 .text.fastboot_complete
                0x00000000878317d8       0x24 drivers/usb/gadget/built-in.o
 .text.get_block_size
                0x00000000878317fc       0x70 drivers/usb/gadget/built-in.o
 .text.fastboot_tx_write
                0x000000008783186c       0x7c drivers/usb/gadget/built-in.o
 .text.fastboot_disable
                0x00000000878318e8       0xcc drivers/usb/gadget/built-in.o
 .text.mmc_sparse_write
                0x00000000878319b4       0xd8 drivers/usb/gadget/built-in.o
 .text.fastboot_tx_write_str
                0x0000000087831a8c       0x1c drivers/usb/gadget/built-in.o
 .text.cb_continue
                0x0000000087831aa8       0x28 drivers/usb/gadget/built-in.o
 .text.cb_boot  0x0000000087831ad0       0x28 drivers/usb/gadget/built-in.o
 .text.cb_reboot_bootloader
                0x0000000087831af8       0x28 drivers/usb/gadget/built-in.o
 .text.strcmp_l1
                0x0000000087831b20       0x38 drivers/usb/gadget/built-in.o
 .text.rx_handler_command
                0x0000000087831b58      0x104 drivers/usb/gadget/built-in.o
 .text.fastboot_start_ep
                0x0000000087831c5c       0x70 drivers/usb/gadget/built-in.o
 .text.fastboot_unbind
                0x0000000087831ccc       0x3c drivers/usb/gadget/built-in.o
 .text.fastboot_add
                0x0000000087831d08       0xb8 drivers/usb/gadget/built-in.o
 .text.do_exit_on_complete
                0x0000000087831dc0        0x4 drivers/usb/gadget/built-in.o
 .text.do_bootm_on_complete
                0x0000000087831dc4       0x78 drivers/usb/gadget/built-in.o
 .text.compl_do_reset
                0x0000000087831e3c       0x14 drivers/usb/gadget/built-in.o
 .text.fastboot_tx_write_more
                0x0000000087831e50      0x108 drivers/usb/gadget/built-in.o
 .text.fastboot_bind
                0x0000000087831f58      0x1d8 drivers/usb/gadget/built-in.o
 .text.rx_bytes_expected.isra.0
                0x0000000087832130       0x6c drivers/usb/gadget/built-in.o
 .text.cb_download
                0x000000008783219c       0xd0 drivers/usb/gadget/built-in.o
 .text.rx_handler_dl_image
                0x000000008783226c      0x160 drivers/usb/gadget/built-in.o
 .text.fastboot_fifo_complete
                0x00000000878323cc       0x5c drivers/usb/gadget/built-in.o
 .text.bootloader_mmc_offset
                0x0000000087832428       0x8c drivers/usb/gadget/built-in.o
 .text.do_acmd_complete
                0x00000000878324b4       0x18 drivers/usb/gadget/built-in.o
 .text.cb_run_uboot_acmd
                0x00000000878324cc       0x7c drivers/usb/gadget/built-in.o
 .text.cb_upload
                0x0000000087832548       0xa0 drivers/usb/gadget/built-in.o
 .text.fastboot_set_alt
                0x00000000878325e8      0x168 drivers/usb/gadget/built-in.o
 .text.parse_env.isra.7.constprop.13
                0x0000000087832750       0x30 drivers/usb/gadget/built-in.o
 .text.bootloader_gpt_overlay
                0x0000000087832780       0x38 drivers/usb/gadget/built-in.o
                0x0000000087832780                bootloader_gpt_overlay
 .text.write_backup_gpt
                0x00000000878327b8       0x98 drivers/usb/gadget/built-in.o
                0x00000000878327b8                write_backup_gpt
 .text.fastboot_flash_add_ptn
                0x0000000087832850       0x40 drivers/usb/gadget/built-in.o
                0x0000000087832850                fastboot_flash_add_ptn
 .text._fastboot_parts_load_from_ptable
                0x0000000087832890      0x2ec drivers/usb/gadget/built-in.o
 .text.fastboot_flash_dump_ptn
                0x0000000087832b7c       0x64 drivers/usb/gadget/built-in.o
                0x0000000087832b7c                fastboot_flash_dump_ptn
 .text.fastboot_flash_find_ptn
                0x0000000087832be0       0x74 drivers/usb/gadget/built-in.o
                0x0000000087832be0                fastboot_flash_find_ptn
 .text.cb_erase
                0x0000000087832c54      0x204 drivers/usb/gadget/built-in.o
 .text.get_single_var
                0x0000000087832e58      0x480 drivers/usb/gadget/built-in.o
 .text.cb_getvar
                0x00000000878332d8      0x5ac drivers/usb/gadget/built-in.o
 .text.board_fastboot_setup
                0x0000000087833884      0x3a0 drivers/usb/gadget/built-in.o
                0x0000000087833884                board_fastboot_setup
 .text.fastboot_setup
                0x0000000087833c24      0x130 drivers/usb/gadget/built-in.o
                0x0000000087833c24                fastboot_setup
 .text.cb_run_uboot_cmd
                0x0000000087833d54       0x74 drivers/usb/gadget/built-in.o
 .text.fastboot_run_bootmode
                0x0000000087833dc8        0xc drivers/usb/gadget/built-in.o
                0x0000000087833dc8                fastboot_run_bootmode
 .text.fastboot_fail
                0x0000000087833dd4       0x38 drivers/usb/gadget/built-in.o
                0x0000000087833dd4                fastboot_fail
 .text.fastboot_okay
                0x0000000087833e0c       0x38 drivers/usb/gadget/built-in.o
                0x0000000087833e0c                fastboot_okay
 .text.cb_flash
                0x0000000087833e44      0x620 drivers/usb/gadget/built-in.o
 .text.fb_set_reboot_flag
                0x0000000087834464        0x8 drivers/usb/gadget/built-in.o
                0x0000000087834464                fb_set_reboot_flag
 .text.cb_reboot
                0x000000008783446c       0x5c drivers/usb/gadget/built-in.o
 .text.ehci_get_port_speed
                0x00000000878344c8        0x8 drivers/usb/host/built-in.o
 .text.ehci_set_usbmode
                0x00000000878344d0       0x20 drivers/usb/host/built-in.o
 .text.ehci_get_portsc_register
                0x00000000878344f0       0x28 drivers/usb/host/built-in.o
 .text.ehci_powerup_fixup
                0x0000000087834518       0x1c drivers/usb/host/built-in.o
 .text.handshake
                0x0000000087834534       0x50 drivers/usb/host/built-in.o
 .text.ehci_shutdown
                0x0000000087834584       0xd8 drivers/usb/host/built-in.o
 .text.ehci_td_buffer
                0x000000008783465c       0x84 drivers/usb/host/built-in.o
 .text._ehci_poll_int_queue
                0x00000000878346e0       0xbc drivers/usb/host/built-in.o
 .text.disable_periodic.isra.2
                0x000000008783479c       0x50 drivers/usb/host/built-in.o
 .text.enable_periodic.isra.3
                0x00000000878347ec       0x58 drivers/usb/host/built-in.o
 .text._ehci_destroy_int_queue
                0x0000000087834844       0xd0 drivers/usb/host/built-in.o
 .text.ehci_update_endpt2_dev_n_port.isra.4
                0x0000000087834914       0x60 drivers/usb/host/built-in.o
 .text.ehci_submit_async
                0x0000000087834974      0x600 drivers/usb/host/built-in.o
 .text._ehci_create_int_queue.isra.6
                0x0000000087834f74      0x388 drivers/usb/host/built-in.o
 .text.ehci_set_controller_priv
                0x00000000878352fc       0xd4 drivers/usb/host/built-in.o
                0x00000000878352fc                ehci_set_controller_priv
 .text.usb_lowlevel_stop
                0x00000000878353d0       0x28 drivers/usb/host/built-in.o
                0x00000000878353d0                usb_lowlevel_stop
 .text.usb_lowlevel_init
                0x00000000878353f8      0x368 drivers/usb/host/built-in.o
                0x00000000878353f8                usb_lowlevel_init
 .text.submit_bulk_msg
                0x0000000087835760       0x28 drivers/usb/host/built-in.o
                0x0000000087835760                submit_bulk_msg
 .text.submit_control_msg
                0x0000000087835788      0x544 drivers/usb/host/built-in.o
                0x0000000087835788                submit_control_msg
 .text.submit_int_msg
                0x0000000087835ccc       0xa0 drivers/usb/host/built-in.o
                0x0000000087835ccc                submit_int_msg
 .text.ehci_mx6_powerup_fixup
                0x0000000087835d6c       0x58 drivers/usb/host/built-in.o
 .text.board_ehci_power
                0x0000000087835dc4        0x8 drivers/usb/host/built-in.o
                0x0000000087835dc4                board_ehci_power
 .text.ehci_mx6_common_init
                0x0000000087835dcc       0x84 drivers/usb/host/built-in.o
                0x0000000087835dcc                ehci_mx6_common_init
 .text.ehci_hcd_init
                0x0000000087835e50       0xf8 drivers/usb/host/built-in.o
                0x0000000087835e50                ehci_hcd_init
 .text.ehci_hcd_stop
                0x0000000087835f48        0x8 drivers/usb/host/built-in.o
                0x0000000087835f48                ehci_hcd_stop
 .text.env_get_yesno
                0x0000000087835f50       0x3c env/built-in.o
                0x0000000087835f50                env_get_yesno
 .text.env_get_default
                0x0000000087835f8c       0x30 env/built-in.o
                0x0000000087835f8c                env_get_default
 .text.set_default_env
                0x0000000087835fbc       0xa0 env/built-in.o
                0x0000000087835fbc                set_default_env
 .text.set_default_vars
                0x000000008783605c       0x3c env/built-in.o
                0x000000008783605c                set_default_vars
 .text.env_import
                0x0000000087836098       0xc0 env/built-in.o
                0x0000000087836098                env_import
 .text.env_export
                0x0000000087836158       0x88 env/built-in.o
                0x0000000087836158                env_export
 .text.env_relocate
                0x00000000878361e0       0x2c env/built-in.o
                0x00000000878361e0                env_relocate
 .text.env_complete
                0x000000008783620c       0xdc env/built-in.o
                0x000000008783620c                env_complete
 .text.env_get_location
                0x00000000878362e8       0x3c env/built-in.o
                0x00000000878362e8                env_get_location
 .text.env_driver_lookup
                0x0000000087836324       0x44 env/built-in.o
 .text.env_get_char_spec
                0x0000000087836368        0xc env/built-in.o
                0x0000000087836368                env_get_char_spec
 .text.env_get_char
                0x0000000087836374       0x20 env/built-in.o
                0x0000000087836374                env_get_char
 .text.env_load
                0x0000000087836394       0x94 env/built-in.o
                0x0000000087836394                env_load
 .text.env_save
                0x0000000087836428       0x88 env/built-in.o
                0x0000000087836428                env_save
 .text.env_init
                0x00000000878364b0       0x88 env/built-in.o
                0x00000000878364b0                env_init
 .text.regex_callback
                0x0000000087836538      0x140 env/built-in.o
 .text.env_attr_walk
                0x0000000087836678      0x120 env/built-in.o
                0x0000000087836678                env_attr_walk
 .text.env_attr_lookup
                0x0000000087836798       0x84 env/built-in.o
                0x0000000087836798                env_attr_lookup
 .text.clear_callback
                0x000000008783681c       0x10 env/built-in.o
 .text.find_env_callback
                0x000000008783682c       0x5c env/built-in.o
 .text.on_callbacks
                0x0000000087836888       0x50 env/built-in.o
 .text.set_callback
                0x00000000878368d8       0x9c env/built-in.o
 .text.env_callback_init
                0x0000000087836974       0xc4 env/built-in.o
                0x0000000087836974                env_callback_init
 .text.skip_num
                0x0000000087836a38       0x6c env/built-in.o
 .text.clear_flags
                0x0000000087836aa4       0x10 env/built-in.o
 .text.on_flags
                0x0000000087836ab4       0x50 env/built-in.o
 .text.env_flags_parse_vartype
                0x0000000087836b04       0x50 env/built-in.o
                0x0000000087836b04                env_flags_parse_vartype
 .text.env_flags_parse_varaccess
                0x0000000087836b54       0x50 env/built-in.o
                0x0000000087836b54                env_flags_parse_varaccess
 .text.set_flags
                0x0000000087836ba4       0xb0 env/built-in.o
 .text.eth_validate_ethaddr_str
                0x0000000087836c54       0x94 env/built-in.o
                0x0000000087836c54                eth_validate_ethaddr_str
 .text.env_flags_init
                0x0000000087836ce8       0xd8 env/built-in.o
                0x0000000087836ce8                env_flags_init
 .text.env_flags_validate
                0x0000000087836dc0      0x288 env/built-in.o
                0x0000000087836dc0                env_flags_validate
 .text.mmc_get_env_addr
                0x0000000087837048       0x10 env/built-in.o
                0x0000000087837048                mmc_get_env_addr
 .text.fini_mmc_for_env.isra.0
                0x0000000087837058       0x24 env/built-in.o
 .text.mmc_get_env_part
                0x000000008783707c        0x8 env/built-in.o
                0x000000008783707c                mmc_get_env_part
 .text.init_mmc_for_env
                0x0000000087837084       0x8c env/built-in.o
 .text.env_mmc_save
                0x0000000087837110      0x10c env/built-in.o
 .text.env_mmc_load
                0x000000008783721c       0xf4 env/built-in.o
 .text.fs_probe_unsupported
                0x0000000087837310       0x18 fs/built-in.o
 .text.fs_ls_unsupported
                0x0000000087837328        0x8 fs/built-in.o
 .text.fs_exists_unsupported
                0x0000000087837330        0x8 fs/built-in.o
 .text.fs_size_unsupported
                0x0000000087837338        0x8 fs/built-in.o
 .text.fs_read_unsupported
                0x0000000087837340        0x8 fs/built-in.o
 .text.fs_close_unsupported
                0x0000000087837348        0x4 fs/built-in.o
 .text.fs_opendir_unsupported
                0x000000008783734c        0x8 fs/built-in.o
 .text.fs_get_info
                0x0000000087837354       0x20 fs/built-in.o
 .text.fs_close
                0x0000000087837374       0x28 fs/built-in.o
 .text.fs_write_unsupported
                0x000000008783739c        0x8 fs/built-in.o
 .text.fs_uuid_unsupported
                0x00000000878373a4        0x8 fs/built-in.o
 .text.fs_set_blk_dev
                0x00000000878373ac       0xcc fs/built-in.o
                0x00000000878373ac                fs_set_blk_dev
 .text.fs_set_blk_dev_with_part
                0x0000000087837478       0x98 fs/built-in.o
                0x0000000087837478                fs_set_blk_dev_with_part
 .text.fs_ls    0x0000000087837510       0x3c fs/built-in.o
                0x0000000087837510                fs_ls
 .text.fs_exists
                0x000000008783754c       0x34 fs/built-in.o
                0x000000008783754c                fs_exists
 .text.fs_size  0x0000000087837580       0x3c fs/built-in.o
                0x0000000087837580                fs_size
 .text.fs_read  0x00000000878375bc       0x60 fs/built-in.o
                0x00000000878375bc                fs_read
 .text.fs_write
                0x000000008783761c       0x90 fs/built-in.o
                0x000000008783761c                fs_write
 .text.fs_opendir
                0x00000000878376ac       0x7c fs/built-in.o
                0x00000000878376ac                fs_opendir
 .text.fs_readdir
                0x0000000087837728       0x5c fs/built-in.o
                0x0000000087837728                fs_readdir
 .text.fs_closedir
                0x0000000087837784       0x38 fs/built-in.o
                0x0000000087837784                fs_closedir
 .text.fs_ls_generic
                0x00000000878377bc       0xac fs/built-in.o
 .text.do_size  0x0000000087837868       0x60 fs/built-in.o
                0x0000000087837868                do_size
 .text.do_load  0x00000000878378c8      0x244 fs/built-in.o
                0x00000000878378c8                do_load
 .text.do_ls    0x0000000087837b0c       0x68 fs/built-in.o
                0x0000000087837b0c                do_ls
 .text.file_exists
                0x0000000087837b74       0x2c fs/built-in.o
                0x0000000087837b74                file_exists
 .text.do_save  0x0000000087837ba0      0x178 fs/built-in.o
                0x0000000087837ba0                do_save
 .text.do_fs_type
                0x0000000087837d18       0x70 fs/built-in.o
                0x0000000087837d18                do_fs_type
 .text.downcase
                0x0000000087837d88       0x38 fs/built-in.o
 .text.disk_read
                0x0000000087837dc0       0x60 fs/built-in.o
 .text.get_fatent
                0x0000000087837e20      0x164 fs/built-in.o
 .text.next_dent
                0x0000000087837f84      0x130 fs/built-in.o
 .text.get_cluster
                0x00000000878380b4      0x17c fs/built-in.o
 .text.read_bootsectandvi
                0x0000000087838230      0x124 fs/built-in.o
 .text.fat_itr_root
                0x0000000087838354      0x154 fs/built-in.o
 .text.fat_itr_next
                0x00000000878384a8      0x2a4 fs/built-in.o
 .text.fat_itr_resolve
                0x000000008783874c      0x178 fs/built-in.o
 .text.fat_set_blk_dev
                0x00000000878388c4       0xcc fs/built-in.o
                0x00000000878388c4                fat_set_blk_dev
 .text.file_fat_detectfs
                0x0000000087838990      0x148 fs/built-in.o
                0x0000000087838990                file_fat_detectfs
 .text.fat_exists
                0x0000000087838ad8       0x6c fs/built-in.o
                0x0000000087838ad8                fat_exists
 .text.fat_size
                0x0000000087838b44       0xb8 fs/built-in.o
                0x0000000087838b44                fat_size
 .text.file_fat_read_at
                0x0000000087838bfc      0x3e4 fs/built-in.o
                0x0000000087838bfc                file_fat_read_at
 .text.fat_read_file
                0x0000000087838fe0       0x48 fs/built-in.o
                0x0000000087838fe0                fat_read_file
 .text.fat_opendir
                0x0000000087839028       0x80 fs/built-in.o
                0x0000000087839028                fat_opendir
 .text.fat_readdir
                0x00000000878390a8       0x74 fs/built-in.o
                0x00000000878390a8                fat_readdir
 .text.fat_closedir
                0x000000008783911c       0x1c fs/built-in.o
                0x000000008783911c                fat_closedir
 .text.fat_close
                0x0000000087839138        0x4 fs/built-in.o
                0x0000000087839138                fat_close
 .text.efi_uc_destroy
                0x000000008783913c       0x18 lib/built-in.o
 .text.efi_uc_init
                0x0000000087839154       0x18 lib/built-in.o
 .text.check_node_type
                0x000000008783916c       0x8c lib/built-in.o
 .text.efi_uc_start
                0x00000000878391f8       0xd8 lib/built-in.o
 .text.efi_uc_supported
                0x00000000878392d0       0xc0 lib/built-in.o
 .text.disconnect_child
                0x0000000087839390       0x70 lib/built-in.o
 .text.efi_uc_stop
                0x0000000087839400      0x14c lib/built-in.o
 .text.efi_driver_init
                0x000000008783954c      0x10c lib/built-in.o
                0x000000008783954c                efi_driver_init
 .text.efi_load_pe
                0x0000000087839658      0x324 lib/built-in.o
                0x0000000087839658                efi_load_pe
 .text.__efi_entry_check
                0x000000008783997c       0x38 lib/built-in.o
                0x000000008783997c                __efi_entry_check
 .text.__efi_exit_check
                0x00000000878399b4       0x2c lib/built-in.o
                0x00000000878399b4                __efi_exit_check
 .text.efi_set_mem
                0x00000000878399e0       0x28 lib/built-in.o
 .text.efi_copy_mem
                0x0000000087839a08       0x24 lib/built-in.o
 .text.efi_calculate_crc32
                0x0000000087839a2c       0x30 lib/built-in.o
 .text.efi_set_watchdog_timer
                0x0000000087839a5c       0x24 lib/built-in.o
 .text.efi_stall
                0x0000000087839a80       0x20 lib/built-in.o
 .text.efi_get_next_monotonic_count
                0x0000000087839aa0       0x34 lib/built-in.o
 .text.efi_start_image
                0x0000000087839ad4       0xac lib/built-in.o
 .text.efi_register_protocol_notify
                0x0000000087839b80       0x14 lib/built-in.o
 .text.efi_reinstall_protocol_interface
                0x0000000087839b94       0x14 lib/built-in.o
 .text.efi_close_event
                0x0000000087839ba8       0x68 lib/built-in.o
 .text.efi_free_pool_ext
                0x0000000087839c10       0x24 lib/built-in.o
 .text.efi_allocate_pool_ext
                0x0000000087839c34       0x2c lib/built-in.o
 .text.efi_get_memory_map_ext
                0x0000000087839c60       0x40 lib/built-in.o
 .text.efi_free_pages_ext
                0x0000000087839ca0       0x34 lib/built-in.o
 .text.efi_allocate_pages_ext
                0x0000000087839cd4       0x34 lib/built-in.o
 .text.efi_restore_tpl
                0x0000000087839d08       0x2c lib/built-in.o
 .text.efi_raise_tpl
                0x0000000087839d34       0x34 lib/built-in.o
 .text.efi_save_gd
                0x0000000087839d68       0x10 lib/built-in.o
                0x0000000087839d68                efi_save_gd
 .text.efi_restore_gd
                0x0000000087839d78       0x18 lib/built-in.o
                0x0000000087839d78                efi_restore_gd
 .text.efi_exit
                0x0000000087839d90       0x30 lib/built-in.o
 .text.efi_signal_event
                0x0000000087839dc0       0x60 lib/built-in.o
                0x0000000087839dc0                efi_signal_event
 .text.efi_exit_boot_services
                0x0000000087839e20       0xd8 lib/built-in.o
 .text.efi_signal_event_ext
                0x0000000087839ef8       0x6c lib/built-in.o
 .text.efi_add_handle
                0x0000000087839f64       0x38 lib/built-in.o
                0x0000000087839f64                efi_add_handle
 .text.efi_create_handle
                0x0000000087839f9c       0x40 lib/built-in.o
                0x0000000087839f9c                efi_create_handle
 .text.efi_create_event
                0x0000000087839fdc       0x98 lib/built-in.o
                0x0000000087839fdc                efi_create_event
 .text.efi_create_event_ex
                0x000000008783a074       0x58 lib/built-in.o
                0x000000008783a074                efi_create_event_ex
 .text.efi_create_event_ext
                0x000000008783a0cc       0x40 lib/built-in.o
 .text.efi_timer_check
                0x000000008783a10c       0xc8 lib/built-in.o
                0x000000008783a10c                efi_timer_check
 .text.efi_check_event
                0x000000008783a1d4       0xa0 lib/built-in.o
 .text.efi_wait_for_event
                0x000000008783a274      0x108 lib/built-in.o
 *fill*         0x000000008783a37c        0x4 
 .text.efi_set_timer
                0x000000008783a380      0x118 lib/built-in.o
                0x000000008783a380                efi_set_timer
 .text.efi_set_timer_ext
                0x000000008783a498       0x34 lib/built-in.o
 .text.efi_search_obj
                0x000000008783a4cc       0x38 lib/built-in.o
                0x000000008783a4cc                efi_search_obj
 .text.efi_search_protocol
                0x000000008783a504       0x7c lib/built-in.o
                0x000000008783a504                efi_search_protocol
 .text.efi_remove_protocol
                0x000000008783a580       0x60 lib/built-in.o
                0x000000008783a580                efi_remove_protocol
 .text.efi_locate_protocol
                0x000000008783a5e0       0x90 lib/built-in.o
 .text.efi_open_protocol_information
                0x000000008783a670       0xdc lib/built-in.o
 .text.efi_close_protocol
                0x000000008783a74c       0xa0 lib/built-in.o
 .text.efi_locate_handle
                0x000000008783a7ec      0x128 lib/built-in.o
 .text.efi_locate_handle_buffer
                0x000000008783a914       0xc0 lib/built-in.o
 .text.efi_locate_device_path
                0x000000008783a9d4      0x144 lib/built-in.o
 .text.efi_locate_handle_ext
                0x000000008783ab18       0x40 lib/built-in.o
 .text.efi_remove_all_protocols
                0x000000008783ab58       0x54 lib/built-in.o
                0x000000008783ab58                efi_remove_all_protocols
 .text.efi_delete_handle
                0x000000008783abac       0x38 lib/built-in.o
                0x000000008783abac                efi_delete_handle
 .text.efi_protocols_per_handle
                0x000000008783abe4       0xe0 lib/built-in.o
 .text.efi_disconnect_controller
                0x000000008783acc4      0x254 lib/built-in.o
 .text.efi_open_protocol
                0x000000008783af18      0x270 lib/built-in.o
 .text.efi_bind_controller
                0x000000008783b188       0xbc lib/built-in.o
 .text.efi_handle_protocol
                0x000000008783b244       0x20 lib/built-in.o
 .text.efi_disconnect_all_drivers
                0x000000008783b264      0x170 lib/built-in.o
 .text.efi_connect_controller
                0x000000008783b3d4      0x1c4 lib/built-in.o
 .text.efi_unload_image
                0x000000008783b598       0x3c lib/built-in.o
 .text.efi_uninstall_protocol_interface
                0x000000008783b5d4       0xdc lib/built-in.o
 .text.efi_add_protocol
                0x000000008783b6b0       0xa0 lib/built-in.o
                0x000000008783b6b0                efi_add_protocol
 .text.efi_install_protocol_interface
                0x000000008783b750       0x7c lib/built-in.o
 .text.efi_uninstall_multiple_protocol_interfaces
                0x000000008783b7cc       0xd8 lib/built-in.o
 .text.efi_install_multiple_protocol_interfaces
                0x000000008783b8a4       0xd8 lib/built-in.o
 .text.efi_install_configuration_table
                0x000000008783b97c       0xec lib/built-in.o
                0x000000008783b97c                efi_install_configuration_table
 .text.efi_install_configuration_table_ext
                0x000000008783ba68       0x24 lib/built-in.o
 .text.efi_setup_loaded_image
                0x000000008783ba8c       0xcc lib/built-in.o
                0x000000008783ba8c                efi_setup_loaded_image
 .text.efi_load_image_from_path
                0x000000008783bb58      0x124 lib/built-in.o
                0x000000008783bb58                efi_load_image_from_path
 .text.efi_load_image
                0x000000008783bc7c       0xe8 lib/built-in.o
 .text.efi_get_time_boottime
                0x000000008783bd64        0x8 lib/built-in.o
 .text.efi_reset_system_boottime
                0x000000008783bd6c       0x2c lib/built-in.o
 .text.efi_reset_system_init
                0x000000008783bd98        0x4 lib/built-in.o
                0x000000008783bd98                efi_reset_system_init
 .text.efi_get_time_init
                0x000000008783bd9c        0x4 lib/built-in.o
                0x000000008783bd9c                efi_get_time_init
 .text.efi_runtime_relocate
                0x000000008783bda0      0x114 lib/built-in.o
                0x000000008783bda0                efi_runtime_relocate
 .text.efi_set_virtual_address_map
                0x000000008783beb4      0x168 lib/built-in.o
 .text.efi_key_notify
                0x000000008783c01c        0x4 lib/built-in.o
 .text.efi_cin_lock_std_in
                0x000000008783c020       0x14 lib/built-in.o
 .text.efi_cin_set_mode
                0x000000008783c034       0x14 lib/built-in.o
 .text.efi_cin_get_mode
                0x000000008783c048       0x44 lib/built-in.o
 .text.efi_cout_test_string
                0x000000008783c08c       0x14 lib/built-in.o
 .text.efi_cout_reset
                0x000000008783c0a0       0x14 lib/built-in.o
 .text.efi_cin_reset
                0x000000008783c0b4       0x14 lib/built-in.o
 .text.efi_cout_enable_cursor
                0x000000008783c0c8       0x30 lib/built-in.o
 .text.efi_cout_set_cursor_position
                0x000000008783c0f8       0x40 lib/built-in.o
 .text.efi_cout_clear_screen
                0x000000008783c138       0x20 lib/built-in.o
 .text.efi_cout_set_attribute
                0x000000008783c158       0x5c lib/built-in.o
 .text.efi_cout_output_string
                0x000000008783c1b4      0x124 lib/built-in.o
 .text.efi_console_timer_notify
                0x000000008783c2d8       0x34 lib/built-in.o
 .text.efi_cout_set_mode
                0x000000008783c30c       0x48 lib/built-in.o
 .text.efi_cin_read_key_stroke
                0x000000008783c354      0x128 lib/built-in.o
 .text.efi_cout_query_mode
                0x000000008783c47c      0x230 lib/built-in.o
 .text.efi_console_register
                0x000000008783c6ac      0x150 lib/built-in.o
                0x000000008783c6ac                efi_console_register
 .text.efi_mem_cmp
                0x000000008783c7fc       0x30 lib/built-in.o
 .text.efi_find_free_memory
                0x000000008783c82c       0xb8 lib/built-in.o
 .text.efi_add_memory_map
                0x000000008783c8e4      0x310 lib/built-in.o
                0x000000008783c8e4                efi_add_memory_map
 .text.efi_allocate_pages
                0x000000008783cbf4       0xa8 lib/built-in.o
                0x000000008783cbf4                efi_allocate_pages
 .text.efi_alloc
                0x000000008783cc9c       0x54 lib/built-in.o
                0x000000008783cc9c                efi_alloc
 .text.efi_free_pages
                0x000000008783ccf0       0x38 lib/built-in.o
                0x000000008783ccf0                efi_free_pages
 .text.efi_allocate_pool
                0x000000008783cd28       0x58 lib/built-in.o
                0x000000008783cd28                efi_allocate_pool
 .text.efi_free_pool
                0x000000008783cd80       0x20 lib/built-in.o
                0x000000008783cd80                efi_free_pool
 .text.efi_get_memory_map
                0x000000008783cda0       0xc0 lib/built-in.o
                0x000000008783cda0                efi_get_memory_map
 .text.efi_add_known_memory
                0x000000008783ce60       0x68 lib/built-in.o
                0x000000008783ce60                efi_add_known_memory
 .text.efi_memory_init
                0x000000008783cec8       0x88 lib/built-in.o
                0x000000008783cec8                efi_memory_init
 .text.efi_str_to_u16
                0x000000008783cf50       0x60 lib/built-in.o
 .text.efi_convert_single_device_node_to_text
                0x000000008783cfb0      0x488 lib/built-in.o
 .text.efi_convert_device_path_to_text
                0x000000008783d438       0x80 lib/built-in.o
 .text.efi_convert_device_node_to_text
                0x000000008783d4b8       0x40 lib/built-in.o
 .text.efi_dp_str
                0x000000008783d4f8       0x2c lib/built-in.o
                0x000000008783d4f8                efi_dp_str
 .text.dp_alloc
                0x000000008783d524       0x28 lib/built-in.o
 .text.dp_part_node
                0x000000008783d54c      0x1dc lib/built-in.o
 .text.efi_dp_next
                0x000000008783d728       0x3c lib/built-in.o
                0x000000008783d728                efi_dp_next
 .text.efi_dp_match
                0x000000008783d764       0x70 lib/built-in.o
                0x000000008783d764                efi_dp_match
 .text.efi_dp_last_node
                0x000000008783d7d4       0x44 lib/built-in.o
                0x000000008783d7d4                efi_dp_last_node
 .text.efi_dp_size
                0x000000008783d818       0x3c lib/built-in.o
                0x000000008783d818                efi_dp_size
 .text.find_obj
                0x000000008783d854      0x104 lib/built-in.o
 .text.efi_dp_find_obj
                0x000000008783d958       0x4c lib/built-in.o
                0x000000008783d958                efi_dp_find_obj
 .text.efi_dp_dup
                0x000000008783d9a4       0x40 lib/built-in.o
                0x000000008783d9a4                efi_dp_dup
 .text.efi_dp_append_node
                0x000000008783d9e4       0xd4 lib/built-in.o
                0x000000008783d9e4                efi_dp_append_node
 .text.efi_dp_from_part
                0x000000008783dab8       0xa4 lib/built-in.o
                0x000000008783dab8                efi_dp_from_part
 .text.efi_dp_part_node
                0x000000008783db5c       0x38 lib/built-in.o
                0x000000008783db5c                efi_dp_part_node
 .text.efi_dp_from_file
                0x000000008783db94      0x11c lib/built-in.o
                0x000000008783db94                efi_dp_from_file
 .text.efi_dp_from_eth
                0x000000008783dcb0       0x80 lib/built-in.o
                0x000000008783dcb0                efi_dp_from_eth
 .text.efi_dp_from_mem
                0x000000008783dd30       0xf0 lib/built-in.o
                0x000000008783dd30                efi_dp_from_mem
 .text.efi_dp_split_file_path
                0x000000008783de20       0x8c lib/built-in.o
                0x000000008783de20                efi_dp_split_file_path
 .text.efi_file_flush
                0x000000008783deac       0x14 lib/built-in.o
 .text.efi_file_setinfo
                0x000000008783dec0       0x14 lib/built-in.o
 .text.efi_file_getpos
                0x000000008783ded4       0x24 lib/built-in.o
 .text.efi_file_delete
                0x000000008783def8       0x28 lib/built-in.o
 .text.set_blk_dev.isra.0
                0x000000008783df20        0xc lib/built-in.o
 .text.efi_file_getinfo
                0x000000008783df2c      0x118 lib/built-in.o
 .text.efi_file_setpos
                0x000000008783e044       0x98 lib/built-in.o
 .text.efi_file_write
                0x000000008783e0dc       0x84 lib/built-in.o
 .text.efi_file_read
                0x000000008783e160      0x188 lib/built-in.o
 .text.file_open
                0x000000008783e2e8      0x284 lib/built-in.o
 .text.efi_open_volume
                0x000000008783e56c       0x3c lib/built-in.o
 .text.efi_file_open
                0x000000008783e5a8       0x54 lib/built-in.o
 .text.efi_file_close
                0x000000008783e5fc       0x28 lib/built-in.o
 .text.efi_file_from_path
                0x000000008783e624      0x124 lib/built-in.o
                0x000000008783e624                efi_file_from_path
 .text.efi_simple_file_system
                0x000000008783e748       0x44 lib/built-in.o
                0x000000008783e748                efi_simple_file_system
 .text.efi_to_native
                0x000000008783e78c       0x60 lib/built-in.o
 .text.prefix   0x000000008783e7ec       0x38 lib/built-in.o
 .text.hex      0x000000008783e824       0x40 lib/built-in.o
 .text.parse_attr.part.1
                0x000000008783e864       0xa4 lib/built-in.o
 .text.efi_get_variable
                0x000000008783e908      0x224 lib/built-in.o
                0x000000008783e908                efi_get_variable
 .text.efi_get_next_variable
                0x000000008783eb2c       0x14 lib/built-in.o
                0x000000008783eb2c                efi_get_next_variable
 .text.efi_set_variable
                0x000000008783eb40      0x224 lib/built-in.o
                0x000000008783eb40                efi_set_variable
 .text.get_var.constprop.0
                0x000000008783ed64       0xb4 lib/built-in.o
 .text.efi_bootmgr_load
                0x000000008783ee18      0x180 lib/built-in.o
                0x000000008783ee18                efi_bootmgr_load
 .text.efi_watchdog_timer_notify
                0x000000008783ef98       0x44 lib/built-in.o
 .text.efi_set_watchdog
                0x000000008783efdc       0x30 lib/built-in.o
                0x000000008783efdc                efi_set_watchdog
 *fill*         0x000000008783f00c        0x4 
 .text.efi_watchdog_register
                0x000000008783f010       0x7c lib/built-in.o
                0x000000008783f010                efi_watchdog_register
 .text.efi_disk_flush_blocks
                0x000000008783f08c       0x14 lib/built-in.o
 .text.efi_disk_reset
                0x000000008783f0a0       0x14 lib/built-in.o
 .text.efi_disk_add_dev.isra.0.part.1
                0x000000008783f0b4      0x198 lib/built-in.o
 .text.efi_disk_read_blocks
                0x000000008783f24c       0x74 lib/built-in.o
 .text.efi_disk_write_blocks
                0x000000008783f2c0       0x74 lib/built-in.o
 .text.efi_fs_from_path
                0x000000008783f334       0x74 lib/built-in.o
                0x000000008783f334                efi_fs_from_path
 .text.efi_disk_create_partitions
                0x000000008783f3a8       0xec lib/built-in.o
                0x000000008783f3a8                efi_disk_create_partitions
 .text.efi_disk_register
                0x000000008783f494      0x15c lib/built-in.o
                0x000000008783f494                efi_disk_register
 .text.efi_net_push
                0x000000008783f5f0       0x24 lib/built-in.o
 .text.efi_network_timer_notify
                0x000000008783f614       0x40 lib/built-in.o
 .text.efi_net_nvdata
                0x000000008783f654       0x14 lib/built-in.o
 .text.efi_net_mcastiptomac
                0x000000008783f668       0x14 lib/built-in.o
 .text.efi_net_statistics
                0x000000008783f67c       0x14 lib/built-in.o
 .text.efi_net_station_address
                0x000000008783f690       0x14 lib/built-in.o
 .text.efi_net_receive_filters
                0x000000008783f6a4       0x14 lib/built-in.o
 .text.efi_net_reset
                0x000000008783f6b8       0x14 lib/built-in.o
 .text.efi_net_start
                0x000000008783f6cc       0x14 lib/built-in.o
 .text.efi_net_get_status
                0x000000008783f6e0       0x64 lib/built-in.o
 .text.efi_net_initialize
                0x000000008783f744       0x18 lib/built-in.o
 .text.efi_net_transmit
                0x000000008783f75c       0x50 lib/built-in.o
 .text.efi_net_receive
                0x000000008783f7ac      0x134 lib/built-in.o
 .text.efi_net_shutdown
                0x000000008783f8e0       0x14 lib/built-in.o
 .text.efi_net_stop
                0x000000008783f8f4       0x14 lib/built-in.o
 .text.efi_net_set_dhcp_ack
                0x000000008783f908       0x48 lib/built-in.o
                0x000000008783f908                efi_net_set_dhcp_ack
 .text.efi_net_register
                0x000000008783f950      0x260 lib/built-in.o
                0x000000008783f950                efi_net_register
 .text.efi_smbios_register
                0x000000008783fbb0       0x4c lib/built-in.o
                0x000000008783fbb0                efi_smbios_register
 .text.fdt_check_header
                0x000000008783fbfc       0x74 lib/built-in.o
                0x000000008783fbfc                fdt_check_header
 .text.fdt_offset_ptr
                0x000000008783fc70       0x6c lib/built-in.o
                0x000000008783fc70                fdt_offset_ptr
 .text.fdt_next_tag
                0x000000008783fcdc       0xfc lib/built-in.o
                0x000000008783fcdc                fdt_next_tag
 .text._fdt_check_node_offset
                0x000000008783fdd8       0x3c lib/built-in.o
                0x000000008783fdd8                _fdt_check_node_offset
 .text._fdt_check_prop_offset
                0x000000008783fe14       0x3c lib/built-in.o
                0x000000008783fe14                _fdt_check_prop_offset
 .text.fdt_next_node
                0x000000008783fe50       0xbc lib/built-in.o
                0x000000008783fe50                fdt_next_node
 .text.fdt_first_subnode
                0x000000008783ff0c       0x34 lib/built-in.o
                0x000000008783ff0c                fdt_first_subnode
 .text.fdt_next_subnode
                0x000000008783ff40       0x50 lib/built-in.o
                0x000000008783ff40                fdt_next_subnode
 .text._fdt_find_string
                0x000000008783ff90       0x58 lib/built-in.o
                0x000000008783ff90                _fdt_find_string
 .text.fdt_move
                0x000000008783ffe8       0x44 lib/built-in.o
                0x000000008783ffe8                fdt_move
 .text._fdt_node_end_offset
                0x000000008784002c       0x44 lib/built-in.o
                0x000000008784002c                _fdt_node_end_offset
 .text.fdt_strerror
                0x0000000087840070       0x58 lib/built-in.o
                0x0000000087840070                fdt_strerror
 .text._fdt_blocks_misordered
                0x00000000878400c8       0x64 lib/built-in.o
 .text._fdt_splice
                0x000000008784012c       0x98 lib/built-in.o
 .text._fdt_splice_mem_rsv
                0x00000000878401c4       0x58 lib/built-in.o
 .text._fdt_splice_struct
                0x000000008784021c       0x4c lib/built-in.o
 .text._fdt_packblocks
                0x0000000087840268       0x8c lib/built-in.o
 .text._fdt_add_property
                0x00000000878402f4      0x124 lib/built-in.o
 .text._fdt_rw_check_header
                0x0000000087840418       0x60 lib/built-in.o
 .text.fdt_add_mem_rsv
                0x0000000087840478       0x88 lib/built-in.o
                0x0000000087840478                fdt_add_mem_rsv
 .text.fdt_del_mem_rsv
                0x0000000087840500       0x58 lib/built-in.o
                0x0000000087840500                fdt_del_mem_rsv
 .text.fdt_setprop_placeholder
                0x0000000087840558       0xd0 lib/built-in.o
                0x0000000087840558                fdt_setprop_placeholder
 .text.fdt_setprop
                0x0000000087840628       0x48 lib/built-in.o
                0x0000000087840628                fdt_setprop
 .text.fdt_appendprop
                0x0000000087840670       0xdc lib/built-in.o
                0x0000000087840670                fdt_appendprop
 .text.fdt_delprop
                0x000000008784074c       0x68 lib/built-in.o
                0x000000008784074c                fdt_delprop
 .text.fdt_add_subnode_namelen
                0x00000000878407b4       0xf0 lib/built-in.o
                0x00000000878407b4                fdt_add_subnode_namelen
 .text.fdt_add_subnode
                0x00000000878408a4       0x30 lib/built-in.o
                0x00000000878408a4                fdt_add_subnode
 .text.fdt_del_node
                0x00000000878408d4       0x50 lib/built-in.o
                0x00000000878408d4                fdt_del_node
 .text.fdt_open_into
                0x0000000087840924      0x190 lib/built-in.o
                0x0000000087840924                fdt_open_into
 .text.fdt_address_cells
                0x0000000087840ab4       0x4c lib/built-in.o
                0x0000000087840ab4                fdt_address_cells
 .text.fdt_size_cells
                0x0000000087840b00       0x48 lib/built-in.o
                0x0000000087840b00                fdt_size_cells
 .text.fdt_path_next_separator
                0x0000000087840b48       0x50 lib/built-in.o
 .text._nextprop
                0x0000000087840b98       0x54 lib/built-in.o
 .text.fdt_string
                0x0000000087840bec       0x14 lib/built-in.o
                0x0000000087840bec                fdt_string
 .text.fdt_get_mem_rsv
                0x0000000087840c00       0x60 lib/built-in.o
                0x0000000087840c00                fdt_get_mem_rsv
 .text.fdt_num_mem_rsv
                0x0000000087840c60       0x40 lib/built-in.o
                0x0000000087840c60                fdt_num_mem_rsv
 .text.fdt_subnode_offset_namelen
                0x0000000087840ca0       0xd0 lib/built-in.o
                0x0000000087840ca0                fdt_subnode_offset_namelen
 .text.fdt_subnode_offset
                0x0000000087840d70       0x30 lib/built-in.o
                0x0000000087840d70                fdt_subnode_offset
 .text.fdt_get_name
                0x0000000087840da0       0x74 lib/built-in.o
                0x0000000087840da0                fdt_get_name
 .text.fdt_first_property_offset
                0x0000000087840e14       0x20 lib/built-in.o
                0x0000000087840e14                fdt_first_property_offset
 .text.fdt_next_property_offset
                0x0000000087840e34       0x20 lib/built-in.o
                0x0000000087840e34                fdt_next_property_offset
 .text.fdt_get_property_by_offset
                0x0000000087840e54       0x50 lib/built-in.o
                0x0000000087840e54                fdt_get_property_by_offset
 .text.fdt_get_property_namelen
                0x0000000087840ea4       0xbc lib/built-in.o
                0x0000000087840ea4                fdt_get_property_namelen
 .text.fdt_get_property
                0x0000000087840f60       0x3c lib/built-in.o
                0x0000000087840f60                fdt_get_property
 .text.fdt_getprop_namelen
                0x0000000087840f9c       0x20 lib/built-in.o
                0x0000000087840f9c                fdt_getprop_namelen
 .text.fdt_getprop_by_offset
                0x0000000087840fbc       0x48 lib/built-in.o
                0x0000000087840fbc                fdt_getprop_by_offset
 .text.fdt_getprop
                0x0000000087841004       0x3c lib/built-in.o
                0x0000000087841004                fdt_getprop
 .text.fdt_get_alias_namelen
                0x0000000087841040       0x44 lib/built-in.o
                0x0000000087841040                fdt_get_alias_namelen
 .text.fdt_path_offset_namelen
                0x0000000087841084       0xe4 lib/built-in.o
                0x0000000087841084                fdt_path_offset_namelen
 .text.fdt_path_offset
                0x0000000087841168       0x28 lib/built-in.o
                0x0000000087841168                fdt_path_offset
 .text.fdt_supernode_atdepth_offset
                0x0000000087841190       0xa4 lib/built-in.o
                0x0000000087841190                fdt_supernode_atdepth_offset
 .text.fdt_node_depth
                0x0000000087841234       0x28 lib/built-in.o
                0x0000000087841234                fdt_node_depth
 .text.fdt_stringlist_count
                0x000000008784125c       0x64 lib/built-in.o
                0x000000008784125c                fdt_stringlist_count
 .text.fdt_stringlist_get
                0x00000000878412c0       0xac lib/built-in.o
                0x00000000878412c0                fdt_stringlist_get
 .text.utf16_strlen
                0x000000008784136c       0x1c lib/built-in.o
                0x000000008784136c                utf16_strlen
 .text.utf16_strnlen
                0x0000000087841388       0x24 lib/built-in.o
                0x0000000087841388                utf16_strnlen
 .text.utf16_to_utf8
                0x00000000878413ac      0x118 lib/built-in.o
                0x00000000878413ac                utf16_to_utf8
 .text.utf8_to_utf16
                0x00000000878414c4      0x104 lib/built-in.o
                0x00000000878414c4                utf8_to_utf16
 .text.crc16_ccitt
                0x00000000878415c8       0x38 lib/built-in.o
                0x00000000878415c8                crc16_ccitt
 .text.smbios_write_type127
                0x0000000087841600       0x54 lib/built-in.o
 .text.smbios_write_type32
                0x0000000087841654       0x54 lib/built-in.o
 .text.smbios_string_table_len
                0x00000000878416a8       0x38 lib/built-in.o
 .text.smbios_add_string
                0x00000000878416e0       0x68 lib/built-in.o
 .text.smbios_write_type3
                0x0000000087841748       0x8c lib/built-in.o
 .text.smbios_write_type2
                0x00000000878417d4       0x9c lib/built-in.o
 .text.smbios_write_type0
                0x0000000087841870       0xf4 lib/built-in.o
 .text.smbios_write_type1
                0x0000000087841964       0xc4 lib/built-in.o
 .text.smbios_write_type4
                0x0000000087841a28       0xd8 lib/built-in.o
 .text.write_smbios_table
                0x0000000087841b00      0x124 lib/built-in.o
                0x0000000087841b00                write_smbios_table
 .text.initcall_run_list
                0x0000000087841c24       0x5c lib/built-in.o
                0x0000000087841c24                initcall_run_list
 .text.lmb_add_region
                0x0000000087841c80      0x190 lib/built-in.o
 .text.lmb_init
                0x0000000087841e10       0x28 lib/built-in.o
                0x0000000087841e10                lmb_init
 .text.lmb_add  0x0000000087841e38        0x4 lib/built-in.o
                0x0000000087841e38                lmb_add
 .text.lmb_free
                0x0000000087841e3c       0xe8 lib/built-in.o
                0x0000000087841e3c                lmb_free
 .text.lmb_reserve
                0x0000000087841f24        0x8 lib/built-in.o
                0x0000000087841f24                lmb_reserve
 .text.__lmb_alloc_base
                0x0000000087841f2c      0x124 lib/built-in.o
                0x0000000087841f2c                __lmb_alloc_base
 .text.lmb_alloc_base
                0x0000000087842050       0x34 lib/built-in.o
                0x0000000087842050                lmb_alloc_base
 .text.lmb_alloc
                0x0000000087842084        0x8 lib/built-in.o
                0x0000000087842084                lmb_alloc
 .text.MD5Transform
                0x000000008784208c      0xa24 lib/built-in.o
 .text.MD5Update
                0x0000000087842ab0       0xc8 lib/built-in.o
 .text.MD5Final
                0x0000000087842b78       0xa0 lib/built-in.o
 .text.md5_wd   0x0000000087842c18       0x64 lib/built-in.o
                0x0000000087842c18                md5_wd
 .text.string_to_ip
                0x0000000087842c7c       0x90 lib/built-in.o
                0x0000000087842c7c                string_to_ip
 .text.qsort    0x0000000087842d0c       0xec lib/built-in.o
                0x0000000087842d0c                qsort
 .text.strcmp_compar
                0x0000000087842df8        0xc lib/built-in.o
                0x0000000087842df8                strcmp_compar
 .text.merge    0x0000000087842e04       0x68 lib/built-in.o
 .text.list_sort
                0x0000000087842e6c      0x194 lib/built-in.o
                0x0000000087842e6c                list_sort
 .text.sha1_process
                0x0000000087843000     0x1538 lib/built-in.o
 .text.sha1_update.part.0
                0x0000000087844538       0xbc lib/built-in.o
 .text.sha1_starts
                0x00000000878445f4       0x4c lib/built-in.o
                0x00000000878445f4                sha1_starts
 .text.sha1_update
                0x0000000087844640        0xc lib/built-in.o
                0x0000000087844640                sha1_update
 .text.sha1_finish
                0x000000008784464c      0x144 lib/built-in.o
                0x000000008784464c                sha1_finish
 .text.sha1_csum_wd
                0x0000000087844790       0x3c lib/built-in.o
                0x0000000087844790                sha1_csum_wd
 .text.sha256_process
                0x00000000878447cc     0x24c8 lib/built-in.o
 .text.sha256_update.part.0
                0x0000000087846c94       0xbc lib/built-in.o
 .text.sha256_starts
                0x0000000087846d50       0x70 lib/built-in.o
                0x0000000087846d50                sha256_starts
 .text.sha256_update
                0x0000000087846dc0        0xc lib/built-in.o
                0x0000000087846dc0                sha256_update
 .text.sha256_finish
                0x0000000087846dcc      0x1b0 lib/built-in.o
                0x0000000087846dcc                sha256_finish
 .text.sha256_csum_wd
                0x0000000087846f7c       0x3c lib/built-in.o
                0x0000000087846f7c                sha256_csum_wd
 .text.zcalloc  0x0000000087846fb8        0x8 lib/built-in.o
                0x0000000087846fb8                zcalloc
 .text.zcfree   0x0000000087846fc0        0x8 lib/built-in.o
                0x0000000087846fc0                zcfree
 .text.inflate_fast
                0x0000000087846fc8      0x574 lib/built-in.o
                0x0000000087846fc8                inflate_fast
 .text.inflate_table
                0x000000008784753c      0x51c lib/built-in.o
                0x000000008784753c                inflate_table
 .text.inflateReset
                0x0000000087847a58       0x78 lib/built-in.o
                0x0000000087847a58                inflateReset
 .text.inflateInit2_
                0x0000000087847ad0      0x100 lib/built-in.o
                0x0000000087847ad0                inflateInit2_
 .text.inflateEnd
                0x0000000087847bd0       0x64 lib/built-in.o
                0x0000000087847bd0                inflateEnd
 .text.adler32  0x0000000087847c34      0x340 lib/built-in.o
                0x0000000087847c34                adler32
 .text.inflate  0x0000000087847f74     0x14c4 lib/built-in.o
                0x0000000087847f74                inflate
 .text.gzalloc  0x0000000087849438       0x10 lib/built-in.o
                0x0000000087849438                gzalloc
 .text.gzfree   0x0000000087849448        0x8 lib/built-in.o
                0x0000000087849448                gzfree
 .text.gzip_parse_header
                0x0000000087849450       0xa0 lib/built-in.o
                0x0000000087849450                gzip_parse_header
 .text.zunzip   0x00000000878494f0      0x11c lib/built-in.o
                0x00000000878494f0                zunzip
 .text.gunzip   0x000000008784960c       0x50 lib/built-in.o
                0x000000008784960c                gunzip
 .text.cmpkey   0x000000008784965c       0x14 lib/built-in.o
 .text._hdelete.isra.0
                0x0000000087849670       0x50 lib/built-in.o
 .text.drop_var_from_set.part.1
                0x00000000878496c0       0x50 lib/built-in.o
 .text.match_string
                0x0000000087849710       0xb8 lib/built-in.o
 .text.match_entry
                0x00000000878497c8       0xb4 lib/built-in.o
 .text.hcreate_r
                0x000000008784987c       0x98 lib/built-in.o
                0x000000008784987c                hcreate_r
 .text.hdestroy_r
                0x0000000087849914       0x6c lib/built-in.o
                0x0000000087849914                hdestroy_r
 .text.hmatch_r
                0x0000000087849980       0x9c lib/built-in.o
                0x0000000087849980                hmatch_r
 .text.hsearch_r
                0x0000000087849a1c      0x484 lib/built-in.o
                0x0000000087849a1c                hsearch_r
 .text.hdelete_r
                0x0000000087849ea0       0xf0 lib/built-in.o
                0x0000000087849ea0                hdelete_r
 .text.hexport_r
                0x0000000087849f90      0x29c lib/built-in.o
                0x0000000087849f90                hexport_r
 .text.himport_r
                0x000000008784a22c      0x3f4 lib/built-in.o
                0x000000008784a22c                himport_r
 .text.hwalk_r  0x000000008784a620       0x5c lib/built-in.o
                0x000000008784a620                hwalk_r
 .text.display_options_get_banner_priv
                0x000000008784a67c       0x98 lib/built-in.o
                0x000000008784a67c                display_options_get_banner_priv
 .text.display_options_get_banner
                0x000000008784a714       0x10 lib/built-in.o
                0x000000008784a714                display_options_get_banner
 .text.display_options
                0x000000008784a724       0x34 lib/built-in.o
                0x000000008784a724                display_options
 .text.print_size
                0x000000008784a758      0x14c lib/built-in.o
                0x000000008784a758                print_size
 .text.print_buffer
                0x000000008784a8a4      0x1b4 lib/built-in.o
                0x000000008784a8a4                print_buffer
 .text.crc32_no_comp
                0x000000008784aa58       0xd4 lib/built-in.o
                0x000000008784aa58                crc32_no_comp
 .text.crc32    0x000000008784ab2c       0x14 lib/built-in.o
                0x000000008784ab2c                crc32
 .text.crc32_wd
                0x000000008784ab40        0x4 lib/built-in.o
                0x000000008784ab40                crc32_wd
 .text.crc32_wd_buf
                0x000000008784ab44       0x38 lib/built-in.o
                0x000000008784ab44                crc32_wd_buf
 .text.__div64_32
                0x000000008784ab7c       0xd0 lib/built-in.o
                0x000000008784ab7c                __div64_32
 .text.hang     0x000000008784ac4c       0x1c lib/built-in.o
                0x000000008784ac4c                hang
 .text.skip_spaces
                0x000000008784ac68       0x28 lib/built-in.o
                0x000000008784ac68                skip_spaces
 .text.strim    0x000000008784ac90       0x5c lib/built-in.o
                0x000000008784ac90                strim
 .text.emit     0x000000008784acec       0x24 lib/built-in.o
 .text.store_char_in_data
                0x000000008784ad10       0x28 lib/built-in.o
 .text.get_escape_char
                0x000000008784ad38       0x84 lib/built-in.o
 .text.relocate
                0x000000008784adbc       0x40 lib/built-in.o
 .text.match    0x000000008784adfc      0x3f4 lib/built-in.o
 .text.loop_greedy
                0x000000008784b1f0       0x94 lib/built-in.o
 .text.loop_non_greedy
                0x000000008784b284       0x80 lib/built-in.o
 .text.quantifier
                0x000000008784b304       0x94 lib/built-in.o
 .text.fixup_branch
                0x000000008784b398       0x3c lib/built-in.o
 .text.compile  0x000000008784b3d4      0x330 lib/built-in.o
 .text.slre_compile
                0x000000008784b704       0xc8 lib/built-in.o
                0x000000008784b704                slre_compile
 .text.slre_match
                0x000000008784b7cc       0xa0 lib/built-in.o
                0x000000008784b7cc                slre_match
 .text.strncasecmp
                0x000000008784b86c       0x80 lib/built-in.o
                0x000000008784b86c                strncasecmp
 .text.strcasecmp
                0x000000008784b8ec        0x8 lib/built-in.o
                0x000000008784b8ec                strcasecmp
 .text.strcpy   0x000000008784b8f4       0x18 lib/built-in.o
                0x000000008784b8f4                strcpy
 .text.strncpy  0x000000008784b90c       0x24 lib/built-in.o
                0x000000008784b90c                strncpy
 .text.strcat   0x000000008784b930       0x34 lib/built-in.o
                0x000000008784b930                strcat
 .text.strncat  0x000000008784b964       0x54 lib/built-in.o
                0x000000008784b964                strncat
 .text.strcmp   0x000000008784b9b8       0x28 lib/built-in.o
                0x000000008784b9b8                strcmp
 .text.strncmp  0x000000008784b9e0       0x3c lib/built-in.o
                0x000000008784b9e0                strncmp
 .text.strchr   0x000000008784ba1c       0x30 lib/built-in.o
                0x000000008784ba1c                strchr
 .text.strlen   0x000000008784ba4c       0x24 lib/built-in.o
                0x000000008784ba4c                strlen
 .text.strrchr  0x000000008784ba70       0x3c lib/built-in.o
                0x000000008784ba70                strrchr
 .text.strnlen  0x000000008784baac       0x30 lib/built-in.o
                0x000000008784baac                strnlen
 .text.strdup   0x000000008784badc       0x34 lib/built-in.o
                0x000000008784badc                strdup
 .text.strpbrk  0x000000008784bb10       0x54 lib/built-in.o
                0x000000008784bb10                strpbrk
 .text.strsep   0x000000008784bb64       0x38 lib/built-in.o
                0x000000008784bb64                strsep
 .text.memmove  0x000000008784bb9c       0x40 lib/built-in.o
                0x000000008784bb9c                memmove
 .text.memcmp   0x000000008784bbdc       0x44 lib/built-in.o
                0x000000008784bbdc                memcmp
 .text.strstr   0x000000008784bc20       0x60 lib/built-in.o
                0x000000008784bc20                strstr
 .text.memchr   0x000000008784bc80       0x30 lib/built-in.o
                0x000000008784bc80                memchr
 .text.tick_to_time
                0x000000008784bcb0       0x64 lib/built-in.o
 .text.timer_get_us
                0x000000008784bd14       0x24 lib/built-in.o
                0x000000008784bd14                timer_get_us
 .text.udelay   0x000000008784bd38       0x30 lib/built-in.o
                0x000000008784bd38                udelay
 .text.uuid_str_valid
                0x000000008784bd68       0x8c lib/built-in.o
                0x000000008784bd68                uuid_str_valid
 .text.uuid_str_to_bin
                0x000000008784bdf4      0x194 lib/built-in.o
                0x000000008784bdf4                uuid_str_to_bin
 .text.uuid_bin_to_str
                0x000000008784bf88       0xb0 lib/built-in.o
                0x000000008784bf88                uuid_bin_to_str
 .text.put_dec_trunc
                0x000000008784c038       0xd4 lib/built-in.o
 *fill*         0x000000008784c10c        0x4 
 .text.put_dec  0x000000008784c110      0x18c lib/built-in.o
 .text.number   0x000000008784c29c      0x2c4 lib/built-in.o
 .text.string16
                0x000000008784c560       0xe4 lib/built-in.o
 .text.string   0x000000008784c644       0xb8 lib/built-in.o
 .text.vsnprintf_internal
                0x000000008784c6fc      0x770 lib/built-in.o
 .text.vscnprintf
                0x000000008784ce6c       0x24 lib/built-in.o
                0x000000008784ce6c                vscnprintf
 .text.snprintf
                0x000000008784ce90       0x28 lib/built-in.o
                0x000000008784ce90                snprintf
 .text.vsprintf
                0x000000008784ceb8       0x10 lib/built-in.o
                0x000000008784ceb8                vsprintf
 .text.sprintf  0x000000008784cec8       0x28 lib/built-in.o
                0x000000008784cec8                sprintf
 .text.printf   0x000000008784cef0       0x54 lib/built-in.o
                0x000000008784cef0                printf
 .text.vprintf  0x000000008784cf44       0x40 lib/built-in.o
                0x000000008784cf44                vprintf
 .text.simple_itoa
                0x000000008784cf84       0x58 lib/built-in.o
                0x000000008784cf84                simple_itoa
 .text.panic_finish
                0x000000008784cfdc       0x30 lib/built-in.o
 .text.panic    0x000000008784d00c       0x1c lib/built-in.o
                0x000000008784d00c                panic
 .text._parse_integer_fixup_radix
                0x000000008784d028       0x98 lib/built-in.o
 .text.simple_strtoul
                0x000000008784d0c0       0x78 lib/built-in.o
                0x000000008784d0c0                simple_strtoul
 .text.strict_strtoul
                0x000000008784d138       0x78 lib/built-in.o
                0x000000008784d138                strict_strtoul
 .text.simple_strtol
                0x000000008784d1b0       0x24 lib/built-in.o
                0x000000008784d1b0                simple_strtol
 .text.ustrtoul
                0x000000008784d1d4       0x6c lib/built-in.o
                0x000000008784d1d4                ustrtoul
 .text.simple_strtoull
                0x000000008784d240       0xa4 lib/built-in.o
                0x000000008784d240                simple_strtoull
 .text.ustrtoull
                0x000000008784d2e4       0x84 lib/built-in.o
                0x000000008784d2e4                ustrtoull
 .text.trailing_strtoln
                0x000000008784d368       0x70 lib/built-in.o
                0x000000008784d368                trailing_strtoln
 .text.trailing_strtol
                0x000000008784d3d8        0x8 lib/built-in.o
                0x000000008784d3d8                trailing_strtol
 .text.compute_ip_checksum
                0x000000008784d3e0       0x6c net/built-in.o
                0x000000008784d3e0                compute_ip_checksum
 .text.ip_checksum_ok
                0x000000008784d44c       0x1c net/built-in.o
                0x000000008784d44c                ip_checksum_ok
 .text.arp_init
                0x000000008784d468       0x50 net/built-in.o
                0x000000008784d468                arp_init
 .text.arp_raw_request
                0x000000008784d4b8       0xd0 net/built-in.o
                0x000000008784d4b8                arp_raw_request
 .text.arp_request
                0x000000008784d588       0x84 net/built-in.o
                0x000000008784d588                arp_request
 .text.arp_timeout_check
                0x000000008784d60c       0x90 net/built-in.o
                0x000000008784d60c                arp_timeout_check
 .text.arp_receive
                0x000000008784d69c      0x234 net/built-in.o
                0x000000008784d69c                arp_receive
 .text.dhcp_extended
                0x000000008784d8d0      0x21c net/built-in.o
 .text.dhcp_process_options
                0x000000008784daec      0x1f4 net/built-in.o
 .text.dhcp_packet_process_options
                0x000000008784dce0       0x84 net/built-in.o
 .text.dhcp_handler
                0x000000008784dd64      0x400 net/built-in.o
 .text.bootp_reset
                0x000000008784e164       0x44 net/built-in.o
                0x000000008784e164                bootp_reset
 .text.bootp_request
                0x000000008784e1a8      0x2a0 net/built-in.o
                0x000000008784e1a8                bootp_request
 .text.bootp_timeout_handler
                0x000000008784e448       0x70 net/built-in.o
 .text.dhcp_request
                0x000000008784e4b8        0x4 net/built-in.o
                0x000000008784e4b8                dhcp_request
 .text.__def_eth_init
                0x000000008784e4bc        0x8 net/built-in.o
 .text.eth_set_current_to_next
                0x000000008784e4c4       0x18 net/built-in.o
                0x000000008784e4c4                eth_set_current_to_next
 .text.eth_set_dev
                0x000000008784e4dc       0x10 net/built-in.o
                0x000000008784e4dc                eth_set_dev
 .text.eth_get_dev_by_name
                0x000000008784e4ec       0x80 net/built-in.o
                0x000000008784e4ec                eth_get_dev_by_name
 .text.eth_get_dev_by_index
                0x000000008784e56c       0x38 net/built-in.o
                0x000000008784e56c                eth_get_dev_by_index
 .text.eth_get_dev_index
                0x000000008784e5a4       0x1c net/built-in.o
                0x000000008784e5a4                eth_get_dev_index
 .text.eth_write_hwaddr
                0x000000008784e5c0      0x1d8 net/built-in.o
                0x000000008784e5c0                eth_write_hwaddr
 .text.on_ethaddr
                0x000000008784e798       0xa8 net/built-in.o
 .text.eth_register
                0x000000008784e840       0x7c net/built-in.o
                0x000000008784e840                eth_register
 .text.eth_unregister
                0x000000008784e8bc       0x98 net/built-in.o
                0x000000008784e8bc                eth_unregister
 .text.eth_initialize
                0x000000008784e954      0x18c net/built-in.o
                0x000000008784e954                eth_initialize
 .text.eth_init
                0x000000008784eae0       0x74 net/built-in.o
                0x000000008784eae0                eth_init
 .text.eth_halt
                0x000000008784eb54       0x30 net/built-in.o
                0x000000008784eb54                eth_halt
 .text.eth_send
                0x000000008784eb84       0x3c net/built-in.o
                0x000000008784eb84                eth_send
 .text.eth_rx   0x000000008784ebc0       0x24 net/built-in.o
                0x000000008784ebc0                eth_rx
 .text.eth_parse_enetaddr
                0x000000008784ebe4       0x5c net/built-in.o
                0x000000008784ebe4                eth_parse_enetaddr
 .text.eth_env_get_enetaddr
                0x000000008784ec40       0x5c net/built-in.o
                0x000000008784ec40                eth_env_get_enetaddr
 .text.eth_env_set_enetaddr
                0x000000008784ec9c       0x4c net/built-in.o
                0x000000008784ec9c                eth_env_set_enetaddr
 .text.eth_env_get_enetaddr_by_index
                0x000000008784ece8       0x4c net/built-in.o
                0x000000008784ece8                eth_env_get_enetaddr_by_index
 .text.eth_env_set_enetaddr_by_index
                0x000000008784ed34       0x4c net/built-in.o
                0x000000008784ed34                eth_env_set_enetaddr_by_index
 .text.eth_common_init
                0x000000008784ed80       0x18 net/built-in.o
                0x000000008784ed80                eth_common_init
 .text.eth_mac_skip
                0x000000008784ed98       0x40 net/built-in.o
                0x000000008784ed98                eth_mac_skip
 .text.eth_get_name
                0x000000008784edd8       0x20 net/built-in.o
                0x000000008784edd8                eth_get_name
 .text.eth_current_changed
                0x000000008784edf8       0x98 net/built-in.o
                0x000000008784edf8                eth_current_changed
 .text.eth_try_another
                0x000000008784ee90       0x84 net/built-in.o
                0x000000008784ee90                eth_try_another
 .text.eth_set_current
                0x000000008784ef14       0x90 net/built-in.o
                0x000000008784ef14                eth_set_current
 .text.net_clear_handlers
                0x000000008784efa4       0x34 net/built-in.o
 .text.start_again_timeout_handler
                0x000000008784efd8       0x14 net/built-in.o
 .text.dummy_handler
                0x000000008784efec        0x4 net/built-in.o
 .text.on_ipaddr
                0x000000008784eff0       0x30 net/built-in.o
 .text.on_gatewayip
                0x000000008784f020       0x30 net/built-in.o
 .text.on_netmask
                0x000000008784f050       0x30 net/built-in.o
 .text.on_serverip
                0x000000008784f080       0x30 net/built-in.o
 .text.net_init_loop
                0x000000008784f0b0       0x28 net/built-in.o
 .text.net_auto_load
                0x000000008784f0d8       0x64 net/built-in.o
                0x000000008784f0d8                net_auto_load
 .text.net_init
                0x000000008784f13c       0x70 net/built-in.o
                0x000000008784f13c                net_init
 .text.net_start_again
                0x000000008784f1ac      0x168 net/built-in.o
                0x000000008784f1ac                net_start_again
 .text.net_loop
                0x000000008784f314      0x370 net/built-in.o
                0x000000008784f314                net_loop
 .text.net_set_udp_handler
                0x000000008784f684       0x20 net/built-in.o
                0x000000008784f684                net_set_udp_handler
 .text.net_get_arp_handler
                0x000000008784f6a4       0x10 net/built-in.o
                0x000000008784f6a4                net_get_arp_handler
 .text.net_set_timeout_handler
                0x000000008784f6b4       0x5c net/built-in.o
                0x000000008784f6b4                net_set_timeout_handler
 .text.net_process_received_packet
                0x000000008784f710      0x314 net/built-in.o
                0x000000008784f710                net_process_received_packet
 .text.net_eth_hdr_size
                0x000000008784fa24       0x3c net/built-in.o
                0x000000008784fa24                net_eth_hdr_size
 .text.net_set_ether
                0x000000008784fa60       0xc0 net/built-in.o
                0x000000008784fa60                net_set_ether
 .text.net_update_ether
                0x000000008784fb20       0x9c net/built-in.o
                0x000000008784fb20                net_update_ether
 .text.net_set_ip_header
                0x000000008784fbbc       0xa8 net/built-in.o
                0x000000008784fbbc                net_set_ip_header
 .text.net_set_udp_header
                0x000000008784fc64       0xc4 net/built-in.o
                0x000000008784fc64                net_set_udp_header
 .text.net_send_udp_packet
                0x000000008784fd28      0x104 net/built-in.o
                0x000000008784fd28                net_send_udp_packet
 .text.copy_filename
                0x000000008784fe2c       0x44 net/built-in.o
                0x000000008784fe2c                copy_filename
 .text.on_bootfile
                0x000000008784fe70       0x44 net/built-in.o
 .text.ip_to_string
                0x000000008784feb4       0x3c net/built-in.o
                0x000000008784feb4                ip_to_string
 .text.string_to_vlan
                0x000000008784fef0       0x50 net/built-in.o
                0x000000008784fef0                string_to_vlan
 .text.on_nvlan
                0x000000008784ff40       0x30 net/built-in.o
 .text.on_vlan  0x000000008784ff70       0x30 net/built-in.o
 .text.rpc_lookup_reply
                0x000000008784ffa0       0xb8 net/built-in.o
 .text.nfs_mount_reply
                0x0000000087850058       0xac net/built-in.o
 .text.nfs_umountall_reply
                0x0000000087850104       0x9c net/built-in.o
 .text.nfs_lookup_reply
                0x00000000878501a0      0x118 net/built-in.o
 .text.nfs3_get_attributes_offset
                0x00000000878502b8       0x14 net/built-in.o
 .text.nfs_readlink_reply
                0x00000000878502cc      0x120 net/built-in.o
 .text.basename
                0x00000000878503ec       0x38 net/built-in.o
 .text.rpc_req  0x0000000087850424      0x12c net/built-in.o
 .text.nfs_read_req
                0x0000000087850550       0xf8 net/built-in.o
 .text.nfs_read_reply.isra.0
                0x0000000087850648      0x168 net/built-in.o
 .text.nfs_mount_req
                0x00000000878507b0       0xc0 net/built-in.o
 .text.nfs_readlink_req
                0x0000000087850870       0xcc net/built-in.o
 .text.nfs_lookup_req
                0x000000008785093c      0x18c net/built-in.o
 .text.nfs_umountall_req
                0x0000000087850ac8       0x84 net/built-in.o
 .text.nfs_send
                0x0000000087850b4c      0x150 net/built-in.o
 .text.nfs_handler
                0x0000000087850c9c      0x23c net/built-in.o
 .text.nfs_timeout_handler
                0x0000000087850ed8       0x64 net/built-in.o
 .text.nfs_start
                0x0000000087850f3c      0x170 net/built-in.o
                0x0000000087850f3c                nfs_start
 .text.ping_timeout_handler
                0x00000000878510ac       0x1c net/built-in.o
 .text.ping_start
                0x00000000878510c8      0x14c net/built-in.o
                0x00000000878510c8                ping_start
 .text.ping_receive
                0x0000000087851214      0x104 net/built-in.o
                0x0000000087851214                ping_receive
 .text.tftp_send
                0x0000000087851318      0x1d4 net/built-in.o
 .text.tftp_handler
                0x00000000878514ec      0x38c net/built-in.o
 .text.tftp_timeout_handler
                0x0000000087851878       0x88 net/built-in.o
 .text.tftp_start
                0x0000000087851900      0x388 net/built-in.o
                0x0000000087851900                tftp_start
 .text.do_dm_dump_devres
                0x0000000087851c88        0x8 test/dm/built-in.o
 .text.do_dm    0x0000000087851c90       0x74 test/dm/built-in.o
 .text.do_dm_dump_uclass
                0x0000000087851d04       0x10 test/dm/built-in.o
 .text.do_dm_dump_all
                0x0000000087851d14       0x10 test/dm/built-in.o
 .text.__udivsi3
                0x0000000087851d24       0x9c arch/arm/lib/lib.a(lib1funcs.o)
                0x0000000087851d24                __udivsi3
                0x0000000087851d24                __aeabi_uidiv
 .text.__divsi3
                0x0000000087851dc0       0xcc arch/arm/lib/lib.a(lib1funcs.o)
                0x0000000087851dc0                __aeabi_idiv
                0x0000000087851dc0                __divsi3
 .text.__aeabi_uidivmod
                0x0000000087851e8c       0x30 arch/arm/lib/lib.a(lib1funcs.o)
                0x0000000087851e8c                __aeabi_uidivmod
                0x0000000087851ea4                __aeabi_idivmod
 .text.Ldiv0    0x0000000087851ebc       0x10 arch/arm/lib/lib.a(lib1funcs.o)
 .text.__aeabi_uldivmod
                0x0000000087851ecc      0x184 arch/arm/lib/lib.a(uldivmod.o)
                0x0000000087851ecc                __aeabi_uldivmod
 .text.__div0   0x0000000087852050        0x4 arch/arm/lib/lib.a(div0.o)
                0x0000000087852050                __div0

.glue_7         0x0000000087852054        0x0
 .glue_7        0x0000000087852054        0x0 linker stubs

.glue_7t        0x0000000087852054        0x0
 .glue_7t       0x0000000087852054        0x0 linker stubs

.vfp11_veneer   0x0000000087852054        0x0
 .vfp11_veneer  0x0000000087852054        0x0 linker stubs

.v4_bx          0x0000000087852054        0x0
 .v4_bx         0x0000000087852054        0x0 linker stubs

.iplt           0x0000000087852054        0x0
 .iplt          0x0000000087852054        0x0 arch/arm/cpu/armv7/start.o

.__secure_start
                0x0000000087852054        0x0
 *(.__secure_start)
 .__secure_start
                0x0000000087852054        0x0 arch/arm/lib/built-in.o
                0x0000000087852054                __secure_start

.secure_text    0x0000000000900000      0x5b4 load address 0x0000000087852054
 *(._secure.text)
 ._secure.text  0x0000000000900000      0x3f4 arch/arm/cpu/armv7/built-in.o
                0x0000000000900098                _do_nonsec_entry
                0x00000000009000ac                _nonsec_init
                0x0000000000900140                _psci_vectors
                0x0000000000900160                psci_fiq_enter
                0x0000000000900164                default_psci_vector
                0x0000000000900168                psci_migrate_info_up_cpu
                0x0000000000900168                psci_cpu_suspend
                0x0000000000900168                psci_version
                0x0000000000900168                psci_affinity_info
                0x0000000000900168                psci_migrate
                0x0000000000900168                psci_system_suspend
                0x0000000000900168                psi_stat_residency
                0x0000000000900168                psci_features
                0x0000000000900168                psci_cpu_default_suspend
                0x0000000000900168                psci_stat_count
                0x0000000000900168                psci_node_hw_state
                0x0000000000900168                psci_set_suspend_mode
                0x0000000000900168                psci_migrate_info_type
                0x0000000000900168                psci_cpu_freeze
                0x0000000000900270                psci_get_cpu_id
                0x000000000090027c                psci_v7_flush_dcache_all
                0x0000000000900320                psci_disable_smp
                0x0000000000900338                psci_enable_smp
                0x000000000090034c                psci_cpu_off_common
                0x0000000000900390                psci_stack_setup
                0x00000000009003ac                psci_arch_init
                0x00000000009003b0                psci_cpu_entry
                0x00000000009003d0                psci_save_target_pc
                0x00000000009003e4                psci_get_target_pc
 ._secure.text  0x00000000009003f4      0x1c0 arch/arm/mach-imx/built-in.o
                0x00000000009003f4                imx_gpcv2_set_core1_power
                0x000000000090044c                imx_enable_cpu_ca7
                0x000000000090047c                imx_cpu_on
                0x00000000009004b4                imx_cpu_off
                0x00000000009004ec                imx_system_reset
                0x0000000000900524                imx_system_off
                0x0000000000900558                psci_cpu_on
                0x0000000000900584                psci_cpu_off
                0x0000000000900598                psci_system_reset
                0x00000000009005a4                psci_system_off

.secure_data    0x00000000009005b4       0x10 load address 0x0000000087852608
 *(._secure.data)
 ._secure.data  0x00000000009005b4       0x10 arch/arm/cpu/armv7/built-in.o

.secure_stack   0x00000000009015b4     0x1a4c load address 0x0000000087852618
 *(.__secure_stack_start)
 .__secure_stack_start
                0x00000000009015b4        0x0 arch/arm/lib/built-in.o
                0x00000000009015b4                __secure_stack_start
                0x00000000009025b4                . = (. + 0x1000)
 *fill*         0x00000000009015b4     0x1000 
                0x0000000000903000                . = ALIGN (CONSTANT (COMMONPAGESIZE))
 *fill*         0x00000000009025b4      0xa4c 
 *(.__secure_stack_end)
 .__secure_stack_end
                0x0000000000903000        0x0 arch/arm/lib/built-in.o
                0x0000000000903000                __secure_stack_end
                0x0000000087852618                . = LOADADDR (.secure_stack)

.__secure_end   0x0000000087852618        0x4
 *(.__secure_end)
 .__secure_end  0x0000000087852618        0x0 arch/arm/lib/built-in.o
                0x0000000087852618                __secure_end
                0x0000000087852618        0x4 LONG 0x1d1071c
                0x000000008785261c                . = ALIGN (0x4)

.rodata         0x0000000087852620    0x11bce
 *(SORT_BY_ALIGNMENT(SORT_BY_NAME(.rodata*)))
 .rodata.bcm4339_pads
                0x0000000087852620       0x10 board/technexion/pico-imx7d/built-in.o
 .rodata.ccm_clko_pads
                0x0000000087852630       0x10 board/technexion/pico-imx7d/built-in.o
 .rodata.ddr_type_detection_pads
                0x0000000087852640       0x10 board/technexion/pico-imx7d/built-in.o
 .rodata.efi_boot_services
                0x0000000087852650       0xc8 lib/built-in.o
 .rodata.efi_file_handle_protocol
                0x0000000087852718       0x30 lib/built-in.o
 .rodata.fec1_pads
                0x0000000087852748       0x88 board/technexion/pico-imx7d/built-in.o
 .rodata.lcd_pads
                0x00000000878527d0       0xe8 board/technexion/pico-imx7d/built-in.o
 .rodata.pwm_pads
                0x00000000878528b8        0x8 board/technexion/pico-imx7d/built-in.o
 .rodata.uart5_pads
                0x00000000878528c0       0x10 board/technexion/pico-imx7d/built-in.o
 .rodata.usb_otg1_pads
                0x00000000878528d0        0x8 board/technexion/pico-imx7d/built-in.o
                0x00000000878528d0                usb_otg1_pads
 .rodata.usb_otg2_pads
                0x00000000878528d8        0x8 board/technexion/pico-imx7d/built-in.o
                0x00000000878528d8                usb_otg2_pads
 .rodata.usdhc1_pads
                0x00000000878528e0       0x38 board/technexion/pico-imx7d/built-in.o
 .rodata.usdhc3_emmc_pads
                0x0000000087852918       0x58 board/technexion/pico-imx7d/built-in.o
 .rodata.wdog_pads
                0x0000000087852970        0x8 board/technexion/pico-imx7d/built-in.o
 .rodata        0x0000000087852978       0x80 arch/arm/lib/built-in.o
 .rodata        0x00000000878529f8        0x8 drivers/built-in.o
 .rodata        0x0000000087852a00        0xc drivers/power/built-in.o
 .rodata.CSWTCH.14
                0x0000000087852a0c       0xe8 arch/arm/mach-imx/built-in.o
 .rodata.CSWTCH.158
                0x0000000087852af4       0x6c common/built-in.o
 .rodata.CSWTCH.23
                0x0000000087852b60       0x14 cmd/built-in.o
 .rodata.CSWTCH.32
                0x0000000087852b74       0x20 common/built-in.o
 .rodata.CSWTCH.40
                0x0000000087852b94       0x20 disk/built-in.o
 .rodata.asix_dongles
                0x0000000087852bb4       0x68 drivers/usb/eth/built-in.o
 .rodata.board_boot_modes
                0x0000000087852c1c       0x18 board/technexion/pico-imx7d/built-in.o
 .rodata.boot_os
                0x0000000087852c34       0x48 common/built-in.o
 .rodata.ci_ep_init
                0x0000000087852c7c       0xb4 drivers/usb/gadget/built-in.o
 .rodata.cmd_dispatch_info
                0x0000000087852d30       0x60 drivers/usb/gadget/built-in.o
 .rodata.color  0x0000000087852d90       0x40 lib/built-in.o
 .rodata.crc_table
                0x0000000087852dd0      0x400 lib/built-in.o
 .rodata.desc_and_len_tbl
                0x00000000878531d0       0x30 cmd/built-in.o
 .rodata.displays
                0x0000000087853200       0x44 board/technexion/pico-imx7d/built-in.o
 .rodata.efi_device_path_to_text
                0x0000000087853244        0x8 lib/built-in.o
                0x0000000087853244                efi_device_path_to_text
 .rodata.efi_runtime_detach_list
                0x000000008785324c       0x50 lib/built-in.o
 .rodata.env_flags_varaccess_mask
                0x000000008785329c       0x10 env/built-in.o
 .rodata.esdhc_ops
                0x00000000878532ac       0x14 drivers/built-in.o
 .rodata.ext_csd_bus_width
                0x00000000878532c0       0x3c drivers/built-in.o
 .rodata.fbase  0x00000000878532fc       0x10 drivers/built-in.o
 .rodata.fdt_errtable
                0x000000008785330c       0x48 lib/built-in.o
 .rodata.freqs.10781
                0x0000000087853354       0x38 drivers/built-in.o
 .rodata.gpio_ports
                0x000000008785338c       0x1c drivers/gpio/built-in.o
 .rodata.gpio_rdc
                0x00000000878533a8       0x1c drivers/gpio/built-in.o
 .rodata.imx7_thermal_plat
                0x00000000878533c4        0xc arch/arm/mach-imx/built-in.o
 .rodata.imx_thermal_ops
                0x00000000878533d0        0x4 drivers/built-in.o
 .rodata.init_sequence_f
                0x00000000878533d4       0xb0 common/built-in.o
 .rodata.mmc_modes_by_pref
                0x0000000087853484       0x20 drivers/built-in.o
 .rodata.mmc_versions.11160
                0x00000000878534a4       0x24 drivers/built-in.o
 .rodata.mx6_ehci_ops
                0x00000000878534c8       0x14 drivers/usb/host/built-in.o
 .rodata.names.10776
                0x00000000878534dc       0x38 drivers/built-in.o
 .rodata.op_adv
                0x0000000087853514      0x100 cmd/built-in.o
                0x0000000087853514                op_adv
 .rodata.op_table
                0x0000000087853614       0x68 cmd/built-in.o
 .rodata.prob_dev
                0x000000008785367c       0x18 drivers/usb/eth/built-in.o
 .rodata.reg_0_5_desc_tbl
                0x0000000087853694       0x30 cmd/built-in.o
 .rodata.reg_0_desc_tbl
                0x00000000878536c4       0x78 cmd/built-in.o
 .rodata.reg_1_desc_tbl
                0x000000008785373c       0xc0 cmd/built-in.o
 .rodata.reg_2_desc_tbl
                0x00000000878537fc        0xc cmd/built-in.o
 .rodata.reg_3_desc_tbl
                0x0000000087853808       0x24 cmd/built-in.o
 .rodata.reg_4_desc_tbl
                0x000000008785382c       0x90 cmd/built-in.o
 .rodata.reg_5_desc_tbl
                0x00000000878538bc       0x90 cmd/built-in.o
 .rodata.res_mode_init
                0x000000008785394c      0x208 drivers/built-in.o
                0x000000008785394c                res_mode_init
 .rodata.resources
                0x0000000087853b54       0x68 arch/arm/mach-imx/built-in.o
 .rodata.root_info
                0x0000000087853bbc        0x8 drivers/built-in.o
 .rodata.sd_au_size.11031
                0x0000000087853bc4       0x40 drivers/built-in.o
 .rodata.sd_modes_by_pref
                0x0000000087853c04       0x10 drivers/built-in.o
 .rodata.smbios_write_funcs
                0x0000000087853c14       0x1c lib/built-in.o
 .rodata.soc_boot_modes
                0x0000000087853c30       0x68 arch/arm/mach-imx/built-in.o
                0x0000000087853c30                soc_boot_modes
 .rodata.uimage_arch
                0x0000000087853c98      0x138 common/built-in.o
 .rodata.uimage_comp
                0x0000000087853dd0       0x54 common/built-in.o
 .rodata.uimage_os
                0x0000000087853e24       0x84 common/built-in.o
 .rodata.uimage_type
                0x0000000087853ea8      0x18c common/built-in.o
 .rodata.video_font_draw_table15
                0x0000000087854034       0x10 drivers/built-in.o
 .rodata.video_font_draw_table16
                0x0000000087854044       0x10 drivers/built-in.o
 .rodata.video_font_draw_table24
                0x0000000087854054       0xc0 drivers/built-in.o
 .rodata.video_font_draw_table32
                0x0000000087854114      0x100 drivers/built-in.o
 .rodata.video_font_draw_table8
                0x0000000087854214       0x40 drivers/built-in.o
 .rodata.CSWTCH.4
                0x0000000087854254       0x22 drivers/built-in.o
 .rodata.CSWTCH.5
                0x0000000087854276       0x22 drivers/built-in.o
 .rodata.crc16_tab
                0x0000000087854298      0x200 lib/built-in.o
 .rodata.dbase.9146
                0x0000000087854498       0x40 lib/built-in.o
 .rodata.dext.9147
                0x00000000878544d8       0x40 lib/built-in.o
 .rodata.distfix
                0x0000000087854518       0x80 lib/built-in.o
 .rodata.efi_bootmgr_load.str2.2
                0x0000000087854598       0x48 lib/built-in.o
 .rodata.i2c_clk_div
                0x00000000878545e0       0xc8 drivers/i2c/built-in.o
 .rodata.lbase.9144
                0x00000000878546a8       0x3e lib/built-in.o
 .rodata.lenfix
                0x00000000878546e6      0x800 lib/built-in.o
 .rodata.lext.9145
                0x0000000087854ee6       0x3e lib/built-in.o
 .rodata.order.9240
                0x0000000087854f24       0x26 lib/built-in.o
 .rodata.string16.str2.2
                0x0000000087854f4a        0xe lib/built-in.o
 .rodata        0x0000000087854f58       0x12 cmd/built-in.o
 .rodata        0x0000000087854f6a       0x20 drivers/usb/gadget/built-in.o
 .rodata        0x0000000087854f8a       0x3f drivers/usb/host/built-in.o
 .rodata        0x0000000087854fc9        0x3 env/built-in.o
 .rodata        0x0000000087854fcc       0x20 lib/built-in.o
 .rodata        0x0000000087854fec        0x7 net/built-in.o
 .rodata.CSWTCH.6
                0x0000000087854ff3       0x11 drivers/built-in.o
 .rodata.CSWTCH.70
                0x0000000087855004       0x16 common/built-in.o
 .rodata.END    0x000000008785501a        0x4 lib/built-in.o
 .rodata.ROOT   0x000000008785501e       0x14 lib/built-in.o
 .rodata.__FUNCTION__.9763
                0x0000000087855032       0x17 common/built-in.o
 .rodata.__func__.10210
                0x0000000087855049        0xe drivers/built-in.o
 .rodata.__func__.10574
                0x0000000087855057        0xf arch/arm/mach-imx/built-in.o
 .rodata.__func__.10767
                0x0000000087855066        0xd drivers/built-in.o
 .rodata.__func__.10773
                0x0000000087855073       0x11 drivers/built-in.o
 .rodata.__func__.10785
                0x0000000087855084        0xd drivers/built-in.o
 .rodata.__func__.11062
                0x0000000087855091        0xc drivers/usb/gadget/built-in.o
 .rodata.__func__.11264
                0x000000008785509d        0xc lib/built-in.o
 .rodata.__func__.11323
                0x00000000878550a9       0x15 common/built-in.o
 .rodata.__func__.11558
                0x00000000878550be       0x17 drivers/usb/host/built-in.o
 .rodata.__func__.11614
                0x00000000878550d5       0x12 drivers/i2c/built-in.o
 .rodata.__func__.11648
                0x00000000878550e7        0xd drivers/i2c/built-in.o
 .rodata.__func__.11693
                0x00000000878550f4       0x12 drivers/i2c/built-in.o
 .rodata.__func__.12112
                0x0000000087855106       0x10 drivers/net/built-in.o
 .rodata.__func__.12368
                0x0000000087855116       0x11 drivers/usb/gadget/built-in.o
 .rodata.__func__.12524
                0x0000000087855127       0x11 drivers/usb/gadget/built-in.o
 .rodata.__func__.12668
                0x0000000087855138        0xf drivers/usb/gadget/built-in.o
 .rodata.__func__.14095
                0x0000000087855147        0xf board/technexion/pico-imx7d/built-in.o
 .rodata.__func__.8894
                0x0000000087855156        0xe common/built-in.o
 .rodata.__func__.9046
                0x0000000087855164       0x13 common/built-in.o
 .rodata.__func__.9609
                0x0000000087855177        0xf disk/built-in.o
 .rodata.__func__.9621
                0x0000000087855186       0x12 disk/built-in.o
 .rodata.__func__.9621
                0x0000000087855198        0xa drivers/built-in.o
 .rodata.__func__.9639
                0x00000000878551a2       0x18 common/built-in.o
 .rodata.__func__.9649
                0x00000000878551ba        0xb drivers/built-in.o
 .rodata.__func__.9667
                0x00000000878551c5        0xa drivers/built-in.o
 .rodata.__func__.9677
                0x00000000878551cf       0x14 net/built-in.o
 .rodata.__func__.9714
                0x00000000878551e3        0xe drivers/built-in.o
 .rodata.__func__.9754
                0x00000000878551f1       0x1c disk/built-in.o
 .rodata.__func__.9771
                0x000000008785520d        0xd disk/built-in.o
 .rodata.__func__.9783
                0x000000008785521a       0x17 disk/built-in.o
 .rodata.__func__.9788
                0x0000000087855231        0xd disk/built-in.o
 .rodata.__func__.9895
                0x000000008785523e       0x1b lib/built-in.o
 .rodata.__func__.9909
                0x0000000087855259        0xf drivers/power/built-in.o
 .rodata.__func__.9914
                0x0000000087855268        0xc lib/built-in.o
 .rodata.__func__.9923
                0x0000000087855274        0xe drivers/power/built-in.o
 .rodata.__func__.9958
                0x0000000087855282       0x15 drivers/power/pmic/built-in.o
 .rodata.__func__.9975
                0x0000000087855297        0xb drivers/power/built-in.o
 .rodata.__func__.9976
                0x00000000878552a2        0xd drivers/usb/gadget/built-in.o
 .rodata._ctype
                0x00000000878552af      0x100 lib/built-in.o
                0x00000000878552af                _ctype
 .rodata._do_env_set.isra.0.str1.1
                0x00000000878553af       0x7c cmd/built-in.o
 .rodata._do_help.str1.1
                0x000000008785542b       0x5f common/built-in.o
 .rodata._ehci_create_int_queue.isra.6.str1.1
                0x000000008785548a       0x3d drivers/usb/host/built-in.o
 .rodata._ehci_destroy_int_queue.str1.1
                0x00000000878554c7       0x2d drivers/usb/host/built-in.o
 .rodata._fastboot_parts_load_from_ptable.str1.1
                0x00000000878554f4       0xcd drivers/usb/gadget/built-in.o
                                         0xec (size before relaxing)
 .rodata.announce_dram_init.str1.1
                0x00000000878555c1        0x8 common/built-in.o
 .rodata.armv7_boot_nonsec.str1.1
                0x00000000878555c9       0x17 arch/arm/lib/built-in.o
                                         0x1b (size before relaxing)
 .rodata.armv7_init_nonsec.str1.1
                0x00000000878555e0       0x2e arch/arm/cpu/armv7/built-in.o
 .rodata.arp_receive.str1.1
                0x000000008785560e       0x14 net/built-in.o
 .rodata.arp_request.str1.1
                0x0000000087855622       0x2a net/built-in.o
 .rodata.arp_timeout_check.str1.1
                0x000000008785564c       0x2b net/built-in.o
 .rodata.asix_eth_get_info.str1.1
                0x0000000087855677        0x9 drivers/usb/eth/built-in.o
 .rodata.asix_init.str1.1
                0x0000000087855680       0x3f drivers/usb/eth/built-in.o
 .rodata.autoboot_command.str1.1
                0x00000000878556bf       0x31 common/built-in.o
 .rodata.b_addqchr.str1.1
                0x00000000878556f0        0x5 common/built-in.o
 .rodata.bad_mode.str1.1
                0x00000000878556f5       0x13 arch/arm/lib/built-in.o
 .rodata.bcm5482_startup.str1.1
                0x0000000087855708       0x20 drivers/net/phy/built-in.o
 .rodata.bcm54xx_parse_status.str1.1
                0x0000000087855728       0x27 drivers/net/phy/built-in.o
 .rodata.binary_test.str1.1
                0x000000008785574f       0x17 cmd/built-in.o
 .rodata.blk_common_cmd.str1.1
                0x0000000087855766       0xed cmd/built-in.o
                                        0x101 (size before relaxing)
 .rodata.blk_get_device_by_str.str1.1
                0x0000000087855853       0x6a disk/built-in.o
 .rodata.blk_get_device_part_str.str1.1
                0x00000000878558bd      0x107 disk/built-in.o
                                        0x109 (size before relaxing)
 .rodata.blk_list_devices.str1.1
                0x00000000878559c4       0x2d drivers/built-in.o
                                          0xc (size before relaxing)
 .rodata.blk_print_device_num.str1.1
                0x00000000878559c4       0x10 drivers/built-in.o
 .rodata.blk_show_device.str1.1
                0x00000000878559d4       0x1d drivers/built-in.o
 .rodata.board_ehci_hcd_init.str1.1
                0x00000000878559f1       0x23 board/technexion/pico-imx7d/built-in.o
 .rodata.board_eth_init.str1.1
                0x0000000087855a14       0x15 board/technexion/pico-imx7d/built-in.o
 .rodata.board_fastboot_setup.str1.1
                0x0000000087855a29       0xb6 drivers/usb/gadget/built-in.o
                                         0xd5 (size before relaxing)
 .rodata.board_late_mmc_init.str1.1
                0x0000000087855adf       0x1b board/technexion/pico-imx7d/built-in.o
                                         0x23 (size before relaxing)
 .rodata.board_video_skip.str1.1
                0x0000000087855afa       0x7f board/technexion/pico-imx7d/built-in.o
 .rodata.boot_fdt_add_mem_rsv_regions.str1.1
                0x0000000087855b79       0x35 common/built-in.o
 .rodata.boot_get_fdt.str1.1
                0x0000000087855bae      0x1b5 common/built-in.o
                                        0x1d4 (size before relaxing)
 .rodata.boot_get_fdt_fit.str1.1
                0x0000000087855d63       0x3b common/built-in.o
 .rodata.boot_get_loadable.str1.1
                0x0000000087855d9e       0x3e common/built-in.o
 .rodata.boot_get_ramdisk.str1.1
                0x0000000087855ddc       0xb7 common/built-in.o
                                        0x115 (size before relaxing)
 .rodata.boot_get_setup_fit.str1.1
                0x0000000087855e93       0x3b common/built-in.o
                                          0x6 (size before relaxing)
 .rodata.boot_jump_linux.str1.1
                0x0000000087855e93       0x5c arch/arm/lib/built-in.o
                                         0x5d (size before relaxing)
 .rodata.boot_prep_linux.str1.1
                0x0000000087855eef       0x20 arch/arm/lib/built-in.o
                                         0x29 (size before relaxing)
 .rodata.boot_prep_vxworks.str1.1
                0x0000000087855f0f       0x2a arch/arm/lib/built-in.o
 .rodata.boot_ramdisk_high.str1.1
                0x0000000087855f39       0x54 common/built-in.o
 .rodata.boot_relocate_fdt.str1.1
                0x0000000087855f8d       0xcf common/built-in.o
                                         0xd3 (size before relaxing)
 .rodata.bootdelay_process.str1.1
                0x000000008785605c       0xa1 common/built-in.o
                                         0xa9 (size before relaxing)
 .rodata.bootm_decomp_image.str1.1
                0x00000000878560fd       0x99 common/built-in.o
                                         0xc0 (size before relaxing)
 .rodata.bootm_find_images.str1.1
                0x0000000087856196       0x6c common/built-in.o
 .rodata.bootm_maybe_autostart.str1.1
                0x0000000087856202       0x37 cmd/built-in.o
                                         0x3b (size before relaxing)
 .rodata.bootp_request.str1.1
                0x0000000087856239       0x25 net/built-in.o
 .rodata.bootp_timeout_handler.str1.1
                0x000000008785625e       0x26 net/built-in.o
 .rodata.calculate_hash.str1.1
                0x0000000087856284        0x4 common/built-in.o
                                         0x16 (size before relaxing)
 .rodata.cb_continue.str1.1
                0x0000000087856288        0x5 drivers/usb/gadget/built-in.o
 .rodata.cb_download.str1.1
                0x000000008785628d       0x51 drivers/usb/gadget/built-in.o
                                         0x53 (size before relaxing)
 .rodata.cb_erase.str1.1
                0x00000000878562de      0x172 drivers/usb/gadget/built-in.o
                                        0x1ac (size before relaxing)
 .rodata.cb_flash.str1.1
                0x0000000087856450      0x268 drivers/usb/gadget/built-in.o
                                        0x288 (size before relaxing)
 .rodata.cb_getvar.str1.1
                0x00000000878566b8      0x14d drivers/usb/gadget/built-in.o
 .rodata.cb_reboot.str1.1
                0x0000000087856805       0x2d drivers/usb/gadget/built-in.o
 .rodata.cb_run_uboot_acmd.str1.1
                0x0000000087856832       0x29 drivers/usb/gadget/built-in.o
 .rodata.cb_upload.str1.1
                0x000000008785685b       0x1c drivers/usb/gadget/built-in.o
 .rodata.check_cache_range.str1.1
                0x0000000087856877       0x35 arch/arm/lib/built-in.o
 .rodata.check_command.isra.18.str1.1
                0x00000000878568ac        0x9 drivers/usb/gadget/built-in.o
 .rodata.check_mmc_autodetect.str1.1
                0x00000000878568b5       0x12 board/technexion/pico-imx7d/built-in.o
 .rodata.check_reg.str1.1
                0x00000000878568c7       0x33 drivers/power/built-in.o
 .rodata.checkboard.str1.1
                0x00000000878568fa       0x43 board/technexion/pico-imx7d/built-in.o
 .rodata.ci_ep_queue.str1.1
                0x000000008785693d       0x29 drivers/usb/gadget/built-in.o
 .rodata.cli_readline_into_buffer.str1.1
                0x0000000087856966        0x4 common/built-in.o
                                          0x8 (size before relaxing)
 .rodata.cmd_auto_complete.str1.1
                0x000000008785696a       0x5f common/built-in.o
                                          0xf (size before relaxing)
 .rodata.cmd_process.str1.1
                0x000000008785696a       0x3f common/built-in.o
 .rodata.cmd_process_error.str1.1
                0x00000000878569a9       0x1f common/built-in.o
 .rodata.cmd_usage.str1.1
                0x00000000878569c8       0x36 common/built-in.o
 .rodata.common_diskboot.str1.1
                0x00000000878569fe       0xbf cmd/built-in.o
 .rodata.compile.str1.1
                0x0000000087856abd       0x4a lib/built-in.o
 .rodata.composite_unbind.str1.1
                0x0000000087856b07       0xb0 drivers/usb/gadget/built-in.o
 .rodata.confirm_yesno.str1.1
                0x0000000087856bb7       0x10 common/built-in.o
 .rodata.console_announce_r.str1.1
                0x0000000087856bc7        0x7 common/built-in.o
 .rodata.cread_add_char.str1.1
                0x0000000087856bc7        0x4 common/built-in.o
                                          0x5 (size before relaxing)
 .rodata.create_usage.str1.1
                0x0000000087856bc7        0xb arch/arm/mach-imx/built-in.o
 .rodata.decode_pll.constprop.3.str1.1
                0x0000000087856bd2       0x1b arch/arm/mach-imx/built-in.o
 .rodata.default_environment
                0x0000000087856bed     0x102e env/built-in.o
                0x0000000087856bed                default_environment
 .rodata.dev_get_platdata.str1.1
                0x0000000087857c1b       0x11 drivers/built-in.o
 .rodata.dev_print.str1.1
                0x0000000087857c2c      0x14d disk/built-in.o
                                        0x15e (size before relaxing)
 .rodata.device_bind_common.isra.0.str1.1
                0x0000000087857d79       0x5b drivers/built-in.o
 .rodata.device_probe.str1.1
                0x0000000087857dd4       0x30 drivers/built-in.o
 .rodata.device_remove.str1.1
                0x0000000087857e04       0x98 drivers/built-in.o
 .rodata.dhcp_extended.str1.1
                0x0000000087857e9c       0x3f net/built-in.o
 .rodata.dhcp_handler.str1.1
                0x0000000087857edb       0x41 net/built-in.o
                                         0x4a (size before relaxing)
 .rodata.dhcp_process_options.str1.1
                0x0000000087857f1c       0x78 net/built-in.o
 .rodata.digits.10023
                0x0000000087857f94       0x10 lib/built-in.o
 .rodata.dirletter.10298
                0x0000000087857fa4        0x4 drivers/usb/gadget/built-in.o
 .rodata.disable_periodic.isra.2.str1.1
                0x0000000087857fa8       0x33 drivers/usb/host/built-in.o
 .rodata.display_options.str1.1
                0x0000000087857fdb        0x3 lib/built-in.o
 .rodata.display_options_get_banner_priv.str1.1
                0x0000000087857fdb       0x11 lib/built-in.o
                                         0x15 (size before relaxing)
 .rodata.display_rle8_bitmap.str1.1
                0x0000000087857fec       0x65 drivers/built-in.o
 .rodata.dm_dump_all.str1.1
                0x0000000087858051       0x26 drivers/built-in.o
                                         0x50 (size before relaxing)
 .rodata.dm_dump_uclass.str1.1
                0x0000000087858077       0x32 drivers/built-in.o
                                         0x34 (size before relaxing)
 .rodata.dm_init.str1.1
                0x00000000878580a9       0x25 drivers/built-in.o
 .rodata.dm_root.str1.1
                0x00000000878580ce       0x25 drivers/built-in.o
 .rodata.dm_scan_platdata.str1.1
                0x00000000878580f3       0x1d drivers/built-in.o
 .rodata.do_bdinfo.str1.1
                0x0000000087858110      0x113 cmd/built-in.o
 .rodata.do_bmp_info.str1.1
                0x0000000087858223       0x72 cmd/built-in.o
 .rodata.do_boot_mode.str1.1
                0x0000000087858295        0x8 arch/arm/mach-imx/built-in.o
 .rodata.do_bootaux.str1.1
                0x000000008785829d       0x4c arch/arm/mach-imx/built-in.o
 .rodata.do_bootd.str1.1
                0x00000000878582e9        0x8 cmd/built-in.o
 .rodata.do_bootefi.str1.1
                0x00000000878582f1       0x7d cmd/built-in.o
 .rodata.do_bootefi_exec.str1.1
                0x000000008785836e      0x141 cmd/built-in.o
                                        0x14a (size before relaxing)
 .rodata.do_bootelf.str1.1
                0x00000000878584af       0x4f cmd/built-in.o
                                         0x5c (size before relaxing)
 .rodata.do_bootm.str1.1
                0x00000000878584fe       0x2a cmd/built-in.o
 .rodata.do_bootm_on_complete.str1.1
                0x0000000087858528       0x1e drivers/usb/gadget/built-in.o
 .rodata.do_bootm_qnxelf.str1.1
                0x0000000087858546       0xd4 common/built-in.o
                                         0xdc (size before relaxing)
 .rodata.do_bootm_standalone.str1.1
                0x000000008785861a       0x16 common/built-in.o
 .rodata.do_bootm_states.str1.1
                0x000000008785861a      0x287 common/built-in.o
                                        0x2ff (size before relaxing)
 .rodata.do_bootm_vxworks.str1.1
                0x00000000878588a1        0x8 common/built-in.o
 .rodata.do_bootvx.str1.1
                0x00000000878588a1      0x1b6 cmd/built-in.o
                                        0x1d0 (size before relaxing)
 .rodata.do_bootvx_fdt.str1.1
                0x0000000087858a57       0x57 common/built-in.o
                                         0x7e (size before relaxing)
 .rodata.do_coninfo.str1.1
                0x0000000087858aae       0x2c cmd/built-in.o
                                         0x30 (size before relaxing)
 .rodata.do_data_abort.str1.1
                0x0000000087858ada        0xc arch/arm/lib/built-in.o
 .rodata.do_dcache.str1.1
                0x0000000087858ae6       0x21 cmd/built-in.o
 .rodata.do_echo.str1.1
                0x0000000087858b07        0x3 cmd/built-in.o
 .rodata.do_env_default.str1.1
                0x0000000087858b0a       0x25 cmd/built-in.o
 .rodata.do_env_edit.part.3.str1.1
                0x0000000087858b2f        0x7 cmd/built-in.o
                                          0xa (size before relaxing)
 .rodata.do_env_export.str1.1
                0x0000000087858b36       0x2b cmd/built-in.o
                                         0x34 (size before relaxing)
 .rodata.do_env_import.str1.1
                0x0000000087858b61      0x12f cmd/built-in.o
 .rodata.do_env_print.str1.1
                0x0000000087858c90       0x3d cmd/built-in.o
 .rodata.do_fastboot.str1.1
                0x0000000087858ccd       0x4d cmd/built-in.o
 .rodata.do_fat_fsinfo.str1.1
                0x0000000087858d1a       0x56 cmd/built-in.o
 .rodata.do_fdt.str1.1
                0x0000000087858d70      0x4f1 cmd/built-in.o
                                        0x518 (size before relaxing)
 .rodata.do_fiq.str1.1
                0x0000000087859261       0x18 arch/arm/lib/built-in.o
 .rodata.do_fixup_by_path.str1.1
                0x0000000087859279       0x29 common/built-in.o
 .rodata.do_fs_uuid.str1.1
                0x00000000878592a2        0x4 fs/built-in.o
 .rodata.do_fuse.str1.1
                0x00000000878592a2      0x198 cmd/built-in.o
                                        0x1a4 (size before relaxing)
 .rodata.do_go.str1.1
                0x000000008785943a       0x4f cmd/built-in.o
 .rodata.do_gpio.str1.1
                0x0000000087859489       0xae cmd/built-in.o
                                         0xb9 (size before relaxing)
 .rodata.do_i2c_bus_num.str1.1
                0x0000000087859537       0x58 cmd/built-in.o
 .rodata.do_i2c_bus_speed.str1.1
                0x000000008785958f       0x53 cmd/built-in.o
 .rodata.do_i2c_crc.str1.1
                0x00000000878595e2       0x3e cmd/built-in.o
                                         0x45 (size before relaxing)
 .rodata.do_i2c_md.str1.1
                0x0000000087859620        0xc cmd/built-in.o
                                         0x16 (size before relaxing)
 .rodata.do_i2c_probe.str1.1
                0x000000008785962c       0x1c cmd/built-in.o
 .rodata.do_i2c_show_bus.str1.1
                0x0000000087859648        0xb cmd/built-in.o
                                          0xd (size before relaxing)
 .rodata.do_i2c_write.str1.1
                0x0000000087859653        0x3 cmd/built-in.o
 .rodata.do_icache.str1.1
                0x0000000087859656       0x1d cmd/built-in.o
                                         0x20 (size before relaxing)
 .rodata.do_imgextract.str1.1
                0x0000000087859673      0x1af cmd/built-in.o
                                        0x296 (size before relaxing)
 .rodata.do_irq.str1.1
                0x0000000087859822       0x18 arch/arm/lib/built-in.o
                                         0x13 (size before relaxing)
 .rodata.do_itest.str1.1
                0x0000000087859822       0x1e cmd/built-in.o
 .rodata.do_load.str1.1
                0x0000000087859840       0x39 fs/built-in.o
                                         0x5b (size before relaxing)
 .rodata.do_load_serial.str1.1
                0x0000000087859879       0x6b cmd/built-in.o
 .rodata.do_load_serial_bin.str1.1
                0x00000000878598e4      0x159 cmd/built-in.o
 .rodata.do_load_wrapper.str1.1
                0x0000000087859a3d        0x1 cmd/built-in.o
 .rodata.do_ls.str1.1
                0x0000000087859a3d        0x2 fs/built-in.o
 .rodata.do_mdio.str1.1
                0x0000000087859a3d       0x65 cmd/built-in.o
 .rodata.do_mem_base.str1.1
                0x0000000087859aa2       0x17 cmd/built-in.o
 .rodata.do_mem_cmp.str1.1
                0x0000000087859ab9       0x6e cmd/built-in.o
                                         0x73 (size before relaxing)
 .rodata.do_mem_cp.str1.1
                0x0000000087859b27       0x11 cmd/built-in.o
 .rodata.do_mem_crc.str1.1
                0x0000000087859b38        0x6 cmd/built-in.o
 .rodata.do_mem_mtest.str1.1
                0x0000000087859b38       0xd4 cmd/built-in.o
                                         0xd5 (size before relaxing)
 .rodata.do_mii.str1.1
                0x0000000087859c0c      0x297 cmd/built-in.o
                                        0x2b0 (size before relaxing)
 .rodata.do_mmc_boot_resize.str1.1
                0x0000000087859ea3       0x82 cmd/built-in.o
 .rodata.do_mmc_bootbus.str1.1
                0x0000000087859f25       0x24 cmd/built-in.o
 .rodata.do_mmc_dev.str1.1
                0x0000000087859f49       0x80 cmd/built-in.o
                                         0x89 (size before relaxing)
 .rodata.do_mmc_erase.str1.1
                0x0000000087859fc9       0x67 cmd/built-in.o
 .rodata.do_mmc_hwpartition.str1.1
                0x000000008785a030      0x126 cmd/built-in.o
                                        0x142 (size before relaxing)
 .rodata.do_mmc_part.str1.1
                0x000000008785a156       0x15 cmd/built-in.o
 .rodata.do_mmc_partconf.str1.1
                0x000000008785a16b       0xac cmd/built-in.o
 .rodata.do_mmc_read.str1.1
                0x000000008785a217       0x43 cmd/built-in.o
 .rodata.do_mmc_rst_func.str1.1
                0x000000008785a25a       0x40 cmd/built-in.o
 .rodata.do_mmc_setdsr.str1.1
                0x000000008785a29a       0x1d cmd/built-in.o
 .rodata.do_mmc_write.str1.1
                0x000000008785a2b7       0x47 cmd/built-in.o
 .rodata.do_mmcinfo.str1.1
                0x000000008785a2fe      0x135 cmd/built-in.o
                                        0x187 (size before relaxing)
 .rodata.do_mmcops.str1.1
                0x000000008785a433       0x19 cmd/built-in.o
 .rodata.do_mx7_showclocks.str1.1
                0x000000008785a44c       0xdd arch/arm/mach-imx/built-in.o
                                         0xdf (size before relaxing)
 .rodata.do_not_used.str1.1
                0x000000008785a529        0xa arch/arm/lib/built-in.o
 .rodata.do_ping.str1.1
                0x000000008785a533       0x35 cmd/built-in.o
 .rodata.do_pmic.str1.1
                0x000000008785a568       0xca drivers/power/built-in.o
                                         0xe9 (size before relaxing)
 .rodata.do_prefetch_abort.str1.1
                0x000000008785a632       0x10 arch/arm/lib/built-in.o
 .rodata.do_reset.str1.1
                0x000000008785a642        0xf arch/arm/lib/built-in.o
 .rodata.do_run.str1.1
                0x000000008785a651       0x1c common/built-in.o
 .rodata.do_save.str1.1
                0x000000008785a651       0x1d fs/built-in.o
 .rodata.do_setexpr.str1.1
                0x000000008785a66e       0x11 cmd/built-in.o
                                         0x15 (size before relaxing)
 .rodata.do_showvar.str1.1
                0x000000008785a67f        0xc common/built-in.o
                                         0x2f (size before relaxing)
 .rodata.do_size.str1.1
                0x000000008785a68b        0x9 fs/built-in.o
 .rodata.do_software_interrupt.str1.1
                0x000000008785a68b       0x14 arch/arm/lib/built-in.o
 .rodata.do_source.str1.1
                0x000000008785a69f       0x1e cmd/built-in.o
 .rodata.do_undefined_instruction.str1.1
                0x000000008785a6bd       0x17 arch/arm/lib/built-in.o
 .rodata.do_usb.str1.1
                0x000000008785a6d4      0x279 cmd/built-in.o
                                        0x293 (size before relaxing)
 .rodata.do_usb_mass_storage.str1.1
                0x000000008785a94d      0x120 cmd/built-in.o
                                        0x14e (size before relaxing)
 .rodata.do_usbboot.str1.1
                0x000000008785aa6d        0x4 cmd/built-in.o
 .rodata.do_version.str1.1
                0x000000008785aa71       0x4f cmd/built-in.o
 .rodata.do_write.str1.1
                0x000000008785aac0       0x18 drivers/usb/gadget/built-in.o
 .rodata.drv_video_init.str1.1
                0x000000008785aad8        0xf drivers/built-in.o
                                         0x57 (size before relaxing)
 .rodata.efi_block_io_guid
                0x000000008785aae7       0x10 lib/built-in.o
                0x000000008785aae7                efi_block_io_guid
 .rodata.efi_bootmgr_load.str1.1
                0x000000008785aaf7        0xe lib/built-in.o
 .rodata.efi_console_register.str1.1
                0x000000008785ab05       0x90 lib/built-in.o
 .rodata.efi_convert_single_device_node_to_text.str1.1
                0x000000008785ab95      0x12d lib/built-in.o
                                        0x137 (size before relaxing)
 .rodata.efi_cout_clear_screen.str1.1
                0x000000008785acc2        0x5 lib/built-in.o
 .rodata.efi_cout_enable_cursor.str1.1
                0x000000008785acc7        0x8 lib/built-in.o
 .rodata.efi_cout_query_mode.str1.1
                0x000000008785accf       0x11 lib/built-in.o
                                         0x18 (size before relaxing)
 .rodata.efi_cout_set_attribute.str1.1
                0x000000008785ace0       0x17 lib/built-in.o
 .rodata.efi_cout_set_cursor_position.str1.1
                0x000000008785acf7        0x9 lib/built-in.o
 .rodata.efi_disk_create_partitions.str1.1
                0x000000008785ad00       0x22 lib/built-in.o
 .rodata.efi_disk_register.str1.1
                0x000000008785ad22       0x6b lib/built-in.o
                                         0x70 (size before relaxing)
 .rodata.efi_driver_init.str1.1
                0x000000008785ad8d       0x58 lib/built-in.o
 .rodata.efi_exit.str1.1
                0x000000008785ade5       0x17 lib/built-in.o
 .rodata.efi_file_from_path.str1.1
                0x000000008785adfc       0x10 lib/built-in.o
 .rodata.efi_file_info_guid
                0x000000008785ae0c       0x10 lib/built-in.o
                0x000000008785ae0c                efi_file_info_guid
 .rodata.efi_get_variable.str1.1
                0x000000008785ae1c       0x30 lib/built-in.o
                                         0x37 (size before relaxing)
 .rodata.efi_global_variable_guid
                0x000000008785ae4c       0x10 lib/built-in.o
                0x000000008785ae4c                efi_global_variable_guid
 .rodata.efi_guid_console_control
                0x000000008785ae5c       0x10 lib/built-in.o
                0x000000008785ae5c                efi_guid_console_control
 .rodata.efi_guid_device_path
                0x000000008785ae6c       0x10 lib/built-in.o
                0x000000008785ae6c                efi_guid_device_path
 .rodata.efi_guid_device_path_to_text_protocol
                0x000000008785ae7c       0x10 lib/built-in.o
                0x000000008785ae7c                efi_guid_device_path_to_text_protocol
 .rodata.efi_guid_driver_binding_protocol
                0x000000008785ae8c       0x10 lib/built-in.o
                0x000000008785ae8c                efi_guid_driver_binding_protocol
 .rodata.efi_guid_loaded_image
                0x000000008785ae9c       0x10 lib/built-in.o
                0x000000008785ae9c                efi_guid_loaded_image
 .rodata.efi_guid_text_input_protocol
                0x000000008785aeac       0x10 lib/built-in.o
                0x000000008785aeac                efi_guid_text_input_protocol
 .rodata.efi_guid_text_output_protocol
                0x000000008785aebc       0x10 lib/built-in.o
                0x000000008785aebc                efi_guid_text_output_protocol
 .rodata.efi_load_pe.str1.1
                0x000000008785aecc       0xbc lib/built-in.o
 .rodata.efi_net_guid
                0x000000008785af88       0x10 lib/built-in.o
 .rodata.efi_net_register.str1.1
                0x000000008785af98       0x4d lib/built-in.o
                                         0x63 (size before relaxing)
 .rodata.efi_pxe_guid
                0x000000008785afe5       0x10 lib/built-in.o
 .rodata.efi_runtime_relocate.str1.1
                0x000000008785aff5       0x34 lib/built-in.o
 .rodata.efi_set_bootdev.str1.1
                0x000000008785b029        0x8 cmd/built-in.o
                                          0xb (size before relaxing)
 .rodata.efi_set_variable.str1.1
                0x000000008785b031       0x18 lib/built-in.o
                                         0x1a (size before relaxing)
 .rodata.efi_setup_loaded_image.str1.1
                0x000000008785b049       0x36 lib/built-in.o
 .rodata.efi_simple_file_system_protocol_guid
                0x000000008785b07f       0x10 lib/built-in.o
                0x000000008785b07f                efi_simple_file_system_protocol_guid
 .rodata.efi_to_native.str1.1
                0x000000008785b08f        0xa lib/built-in.o
 .rodata.efi_uc_destroy.str1.1
                0x000000008785b099       0x18 lib/built-in.o
 .rodata.efi_uc_init.str1.1
                0x000000008785b0b1       0x1e lib/built-in.o
 .rodata.efi_uc_stop.str1.1
                0x000000008785b0cf       0xb8 lib/built-in.o
 .rodata.efi_watchdog_register.str1.1
                0x000000008785b187       0x4f lib/built-in.o
 .rodata.efi_watchdog_timer_notify.str1.1
                0x000000008785b1d6       0x18 lib/built-in.o
 .rodata.ehci_shutdown.str1.1
                0x000000008785b1ee       0x2b drivers/usb/host/built-in.o
 .rodata.ehci_submit_async.str1.1
                0x000000008785b219       0xb5 drivers/usb/host/built-in.o
 .rodata.ehci_td_buffer.str1.1
                0x000000008785b2ce       0x29 drivers/usb/host/built-in.o
 .rodata.emit.str1.1
                0x000000008785b2f7       0x1f lib/built-in.o
 .rodata.enable_periodic.isra.3.str1.1
                0x000000008785b316       0x32 drivers/usb/host/built-in.o
 .rodata.env_callback_init.str1.1
                0x000000008785b348        0xb env/built-in.o
 .rodata.env_complete.str1.1
                0x000000008785b353        0x4 env/built-in.o
 .rodata.env_export.str1.1
                0x000000008785b353       0x27 env/built-in.o
 .rodata.env_flags_init.str1.1
                0x000000008785b353        0x7 env/built-in.o
 .rodata.env_flags_parse_varaccess.str1.1
                0x000000008785b35a       0x3d env/built-in.o
 .rodata.env_flags_parse_vartype.str1.1
                0x000000008785b397       0x34 env/built-in.o
 .rodata.env_flags_validate.str1.1
                0x000000008785b3cb       0xb2 env/built-in.o
                                         0xb3 (size before relaxing)
 .rodata.env_flags_varaccess_rep
                0x000000008785b47d        0x5 env/built-in.o
 .rodata.env_flags_vartype_rep
                0x000000008785b482        0x7 env/built-in.o
 .rodata.env_get_bootm_low.str1.1
                0x000000008785b489        0xa common/built-in.o
 .rodata.env_get_bootm_mapsize.str1.1
                0x000000008785b493        0xe common/built-in.o
 .rodata.env_get_bootm_size.str1.1
                0x000000008785b4a1        0xb common/built-in.o
 .rodata.env_get_f.str1.1
                0x000000008785b4ac       0x30 cmd/built-in.o
 .rodata.env_import.str1.1
                0x000000008785b4dc       0x3f env/built-in.o
 .rodata.env_load.str1.1
                0x000000008785b51b       0x2d env/built-in.o
                                         0x31 (size before relaxing)
 .rodata.env_mmc_load.str1.1
                0x000000008785b548        0xd env/built-in.o
 .rodata.env_mmc_save.str1.1
                0x000000008785b555       0x19 env/built-in.o
                                         0x26 (size before relaxing)
 .rodata.env_print.str1.1
                0x000000008785b56e       0x25 cmd/built-in.o
                                         0x2c (size before relaxing)
 .rodata.env_save.str1.1
                0x000000008785b593       0x1d env/built-in.o
 .rodata.env_set.str1.1
                0x000000008785b5b0        0x7 cmd/built-in.o
 .rodata.env_set_hex.str1.1
                0x000000008785b5b7        0x7 cmd/built-in.o
                                          0x4 (size before relaxing)
 .rodata.erase_seq
                0x000000008785b5b7        0x4 common/built-in.o
 .rodata.esdhc_send_cmd.str1.1
                0x000000008785b5bb       0xb8 drivers/built-in.o
 .rodata.eth_current_changed.str1.1
                0x000000008785b673       0x11 net/built-in.o
                                         0x14 (size before relaxing)
 .rodata.eth_env_get_enetaddr_by_index.str1.1
                0x000000008785b684       0x10 net/built-in.o
 .rodata.eth_env_set_enetaddr.str1.1
                0x000000008785b694        0x4 net/built-in.o
 .rodata.eth_get_dev_by_name.str1.1
                0x000000008785b698       0x89 net/built-in.o
                                         0xa2 (size before relaxing)
 .rodata.eth_get_name.str1.1
                0x000000008785b721        0x8 net/built-in.o
 .rodata.eth_initialize.str1.1
                0x000000008785b721       0x96 net/built-in.o
                                         0xb0 (size before relaxing)
 .rodata.eth_mac_skip.str1.1
                0x000000008785b7b7       0x18 net/built-in.o
 .rodata.eth_set_current.str1.1
                0x000000008785b7cf        0x9 net/built-in.o
 .rodata.eth_write_hwaddr.str1.1
                0x000000008785b7cf       0xd4 net/built-in.o
 .rodata.fastboot_add.str1.1
                0x000000008785b8a3        0xb drivers/usb/gadget/built-in.o
 .rodata.fastboot_bind.str1.1
                0x000000008785b8ae        0x8 drivers/usb/gadget/built-in.o
 .rodata.fastboot_complete.str1.1
                0x000000008785b8ae       0x1e drivers/usb/gadget/built-in.o
 .rodata.fastboot_fifo_complete.str1.1
                0x000000008785b8cc       0x13 drivers/usb/gadget/built-in.o
 .rodata.fastboot_flash_dump_ptn.str1.1
                0x000000008785b8df       0x2a drivers/usb/gadget/built-in.o
 .rodata.fastboot_name
                0x000000008785b909       0x11 drivers/usb/gadget/built-in.o
 .rodata.fastboot_run_bootmode.str1.1
                0x000000008785b91a       0x12 drivers/usb/gadget/built-in.o
 .rodata.fastboot_set_alt.str1.1
                0x000000008785b92c       0x4a drivers/usb/gadget/built-in.o
 .rodata.fastboot_setup.str1.1
                0x000000008785b976       0x19 drivers/usb/gadget/built-in.o
 .rodata.fastboot_tx_write.str1.1
                0x000000008785b98f       0x13 drivers/usb/gadget/built-in.o
 .rodata.fastboot_tx_write_more.str1.1
                0x000000008785b9a2       0x2c drivers/usb/gadget/built-in.o
 .rodata.fat_itr_root.str1.1
                0x000000008785b9ce       0x33 fs/built-in.o
 .rodata.fat_read_file.str1.1
                0x000000008785ba01       0x1e fs/built-in.o
 .rodata.fat_set_blk_dev.str1.1
                0x000000008785ba1f        0x3 fs/built-in.o
                                          0xd (size before relaxing)
 .rodata.fdt_address_cells.str1.1
                0x000000008785ba22        0xf lib/built-in.o
 .rodata.fdt_chosen.str1.1
                0x000000008785ba31       0x35 common/built-in.o
                                         0x3e (size before relaxing)
 .rodata.fdt_error.str1.1
                0x000000008785ba66       0x2d common/built-in.o
 .rodata.fdt_find_or_add_subnode.str1.1
                0x000000008785ba93        0xc common/built-in.o
 .rodata.fdt_fixup_ethernet.str1.1
                0x000000008785ba9f       0x2e common/built-in.o
                                         0x42 (size before relaxing)
 .rodata.fdt_fixup_memory_banks.str1.1
                0x000000008785bacd       0x79 common/built-in.o
                                         0x94 (size before relaxing)
 .rodata.fdt_get_alias_namelen.str1.1
                0x000000008785bb46        0x9 lib/built-in.o
 .rodata.fdt_initrd.str1.1
                0x000000008785bb46       0x90 common/built-in.o
                                         0x97 (size before relaxing)
 .rodata.fdt_psci.str1.1
                0x000000008785bbd6       0x68 arch/arm/lib/built-in.o
                                         0x76 (size before relaxing)
 .rodata.fdt_root.str1.1
                0x000000008785bc3e       0x4e common/built-in.o
 .rodata.fdt_size_cells.str1.1
                0x000000008785bc8c        0xc lib/built-in.o
 .rodata.fdt_strerror.str1.1
                0x000000008785bc98       0x31 lib/built-in.o
 .rodata.fdt_valid.str1.1
                0x000000008785bcc9       0x79 cmd/built-in.o
                                         0x7b (size before relaxing)
 .rodata.fec_get_miibus.str1.1
                0x000000008785bd42       0x33 drivers/net/built-in.o
 .rodata.fec_init.str1.1
                0x000000008785bd75       0x1d drivers/net/built-in.o
 .rodata.fec_phy_read.str1.1
                0x000000008785bd92       0x15 drivers/net/built-in.o
 .rodata.fec_phy_write.str1.1
                0x000000008785bda7       0x16 drivers/net/built-in.o
 .rodata.fec_probe.str1.1
                0x000000008785bdbd       0xa2 drivers/net/built-in.o
                                         0xb4 (size before relaxing)
 .rodata.fec_recv.str1.1
                0x000000008785be5f       0x15 drivers/net/built-in.o
 .rodata.fec_send.str1.1
                0x000000008785be74       0x18 drivers/net/built-in.o
 .rodata.file_fat_detectfs.str1.1
                0x000000008785be8c       0x64 fs/built-in.o
                                         0x84 (size before relaxing)
 .rodata.file_fat_read_at.str1.1
                0x000000008785bef0       0x2a fs/built-in.o
 .rodata.file_get.str1.1
                0x000000008785bf1a        0xc common/built-in.o
                                          0x7 (size before relaxing)
 .rodata.file_open.str1.1
                0x000000008785bf1a        0xa lib/built-in.o
                                          0xb (size before relaxing)
 .rodata.find_mmc_device.str1.1
                0x000000008785bf24       0x19 drivers/built-in.o
 .rodata.finish_access.str1.1
                0x000000008785bf3d       0x26 drivers/built-in.o
 .rodata.fit_all_image_verify.str1.1
                0x000000008785bf63       0x7a common/built-in.o
 .rodata.fit_conf_find_compat.str1.1
                0x000000008785bfdd       0x10 common/built-in.o
                                         0x1f (size before relaxing)
 .rodata.fit_conf_get_node.str1.1
                0x000000008785bfed        0x8 common/built-in.o
 .rodata.fit_conf_print.str1.1
                0x000000008785bfed       0x78 common/built-in.o
                                         0x96 (size before relaxing)
 .rodata.fit_get_desc.str1.1
                0x000000008785c065        0xc common/built-in.o
 .rodata.fit_image_get_address.str1.1
                0x000000008785c071       0x1d common/built-in.o
 .rodata.fit_image_get_arch.str1.1
                0x000000008785c08e       0x1d common/built-in.o
                                          0x5 (size before relaxing)
 .rodata.fit_image_get_comp.str1.1
                0x000000008785c08e        0xc common/built-in.o
 .rodata.fit_image_get_data.str1.1
                0x000000008785c08e       0x1d common/built-in.o
                                          0x5 (size before relaxing)
 .rodata.fit_image_get_data_offset.str1.1
                0x000000008785c08e        0xc common/built-in.o
 .rodata.fit_image_get_data_size.str1.1
                0x000000008785c09a        0xa common/built-in.o
 .rodata.fit_image_get_entry.str1.1
                0x000000008785c0a4        0x6 common/built-in.o
 .rodata.fit_image_get_load.str1.1
                0x000000008785c0aa        0x5 common/built-in.o
 .rodata.fit_image_get_node.str1.1
                0x000000008785c0aa        0x8 common/built-in.o
 .rodata.fit_image_get_os.str1.1
                0x000000008785c0b2        0x8 common/built-in.o
                                          0x3 (size before relaxing)
 .rodata.fit_image_get_type.str1.1
                0x000000008785c0b2        0x8 common/built-in.o
                                          0x5 (size before relaxing)
 .rodata.fit_image_hash_get_algo.str1.1
                0x000000008785c0b2        0x5 common/built-in.o
 .rodata.fit_image_hash_get_value.str1.1
                0x000000008785c0b7        0x5 common/built-in.o
                                          0x6 (size before relaxing)
 .rodata.fit_image_load.str1.1
                0x000000008785c0b7      0x1cd common/built-in.o
                                        0x1e0 (size before relaxing)
 .rodata.fit_image_print.str1.1
                0x000000008785c284       0xeb common/built-in.o
                                         0xf8 (size before relaxing)
 .rodata.fit_image_print_data.str1.1
                0x000000008785c36f       0x67 common/built-in.o
                                         0x75 (size before relaxing)
 .rodata.fit_image_verify.str1.1
                0x000000008785c3d6       0xfa common/built-in.o
 .rodata.fit_print_contents.str1.1
                0x000000008785c4d0       0x60 common/built-in.o
                                         0x64 (size before relaxing)
 .rodata.force_idle_bus.str1.1
                0x000000008785c530       0x53 arch/arm/mach-imx/built-in.o
 .rodata.fs_ls_generic.str1.1
                0x000000008785c583       0x37 fs/built-in.o
 .rodata.fs_probe_unsupported.str1.1
                0x000000008785c5ba       0x24 fs/built-in.o
 .rodata.fs_write.str1.1
                0x000000008785c5de       0x1f fs/built-in.o
 .rodata.fsg_add.str1.1
                0x000000008785c5fd       0x5b drivers/usb/gadget/built-in.o
 .rodata.fsg_main_thread.str1.1
                0x000000008785c658        0xe drivers/usb/gadget/built-in.o
 .rodata.fsg_setup.str1.1
                0x000000008785c666       0xb4 drivers/usb/gadget/built-in.o
 .rodata.fsg_string_interface
                0x000000008785c71a        0xd drivers/usb/gadget/built-in.o
 .rodata.fsl_esdhc_initialize.str1.1
                0x000000008785c727       0x4e drivers/built-in.o
 .rodata.ft_system_setup.str1.1
                0x000000008785c775       0x5d arch/arm/mach-imx/built-in.o
 .rodata.fuse_sense.str1.1
                0x000000008785c7d2       0x28 drivers/built-in.o
 .rodata.g_dnl_bind.str1.1
                0x000000008785c7fa        0xb drivers/usb/gadget/built-in.o
                                         0x12 (size before relaxing)
 .rodata.g_dnl_register.str1.1
                0x000000008785c805       0x18 drivers/usb/gadget/built-in.o
 .rodata.genimg_get_arch_id.str1.1
                0x000000008785c81d        0xb common/built-in.o
                                          0x4 (size before relaxing)
 .rodata.genimg_get_arch_name.str1.1
                0x000000008785c81d       0x15 common/built-in.o
 .rodata.genimg_get_comp_id.str1.1
                0x000000008785c832       0x15 common/built-in.o
                                          0xc (size before relaxing)
 .rodata.genimg_get_comp_name.str1.1
                0x000000008785c832       0x14 common/built-in.o
 .rodata.genimg_get_os_id.str1.1
                0x000000008785c846       0x14 common/built-in.o
                                          0x3 (size before relaxing)
 .rodata.genimg_get_os_name.str1.1
                0x000000008785c846        0xb common/built-in.o
 .rodata.genimg_get_type_id.str1.1
                0x000000008785c851        0xb common/built-in.o
                                          0x6 (size before relaxing)
 .rodata.genimg_get_type_name.str1.1
                0x000000008785c851        0xe common/built-in.o
 .rodata.genimg_print_size.str1.1
                0x000000008785c85f        0xc common/built-in.o
                                          0xe (size before relaxing)
 .rodata.genphy_update_link.str1.1
                0x000000008785c86b       0x54 drivers/net/phy/built-in.o
                                         0x56 (size before relaxing)
 .rodata.get_block_size.str1.1
                0x000000008785c8bf       0x25 drivers/usb/gadget/built-in.o
                                         0x2e (size before relaxing)
 .rodata.get_cluster.str1.1
                0x000000008785c8e4       0x25 fs/built-in.o
 .rodata.get_current.str1.1
                0x000000008785c909       0x15 drivers/serial/built-in.o
 .rodata.get_descriptor_len.str1.1
                0x000000008785c91e       0x64 common/built-in.o
 .rodata.get_fatent.str1.1
                0x000000008785c982       0x22 fs/built-in.o
 .rodata.get_gicd_base_address.str1.1
                0x000000008785c9a4       0x2e arch/arm/cpu/armv7/built-in.o
 .rodata.get_imx_type.str1.1
                0x000000008785c9d2       0x68 arch/arm/mach-imx/built-in.o
                                          0x3 (size before relaxing)
 .rodata.get_local_var.str1.1
                0x000000008785c9d2        0xc common/built-in.o
                                          0x3 (size before relaxing)
 .rodata.get_phy_device_by_mask.str1.1
                0x000000008785c9d2       0x29 drivers/net/phy/built-in.o
 .rodata.get_root_clk.str1.1
                0x000000008785c9fb       0x18 arch/arm/mach-imx/built-in.o
 .rodata.get_single_var.str1.1
                0x000000008785ca13      0x218 drivers/usb/gadget/built-in.o
                                        0x237 (size before relaxing)
 .rodata.gzip_parse_header.str1.1
                0x000000008785cc2b       0x3e lib/built-in.o
 .rodata.hang.str1.1
                0x000000008785cc69       0x2a lib/built-in.o
 .rodata.hash_command.str1.1
                0x000000008785cc93       0x58 common/built-in.o
                                         0x5f (size before relaxing)
 .rodata.hex_asc
                0x000000008785cceb       0x11 lib/built-in.o
 .rodata.hexchars.9793
                0x000000008785ccfc       0x11 lib/built-in.o
 .rodata.hexport_r.str1.1
                0x000000008785cd0d       0x30 lib/built-in.o
 .rodata.himport_r.str1.1
                0x000000008785cd3d       0x99 lib/built-in.o
 .rodata.i2c_get_adapter.str1.1
                0x000000008785cdd6       0x2d drivers/i2c/built-in.o
 .rodata.i2c_imx_stop.str1.1
                0x000000008785ce03       0x18 drivers/i2c/built-in.o
 .rodata.i2c_init_transfer.str1.1
                0x000000008785ce1b       0x3f drivers/i2c/built-in.o
 .rodata.image_info.str1.1
                0x000000008785ce5a       0xef cmd/built-in.o
 .rodata.image_print_contents.str1.1
                0x000000008785cf49       0xd0 common/built-in.o
                                         0xd4 (size before relaxing)
 .rodata.image_setup_libfdt.str1.1
                0x000000008785d019       0xe8 common/built-in.o
 .rodata.imx_thermal_get_temp.str1.1
                0x000000008785d101       0x3a drivers/built-in.o
 .rodata.inflate.str1.1
                0x000000008785d13b      0x158 lib/built-in.o
 .rodata.inflate_fast.str1.1
                0x000000008785d293       0x50 lib/built-in.o
 .rodata.init_baud_rate.str1.1
                0x000000008785d2e3        0x9 common/built-in.o
 .rodata.init_func_i2c.str1.1
                0x000000008785d2ec        0x8 common/built-in.o
                                          0xf (size before relaxing)
 .rodata.init_mmc_device.str1.1
                0x000000008785d2f4       0x1a cmd/built-in.o
 .rodata.init_mmc_for_env.str1.1
                0x000000008785d30e       0x5e env/built-in.o
 .rodata.initcall_run_list.str1.1
                0x000000008785d36c       0x31 lib/built-in.o
 .rodata.initr_env.str1.1
                0x000000008785d39d        0x9 common/built-in.o
 .rodata.initr_ethaddr.str1.1
                0x000000008785d39d        0x8 common/built-in.o
 .rodata.initr_mmc.str1.1
                0x000000008785d39d        0x8 common/built-in.o
 .rodata.initr_net.str1.1
                0x000000008785d3a5        0x8 common/built-in.o
 .rodata.insert_var_value_sub.str1.1
                0x000000008785d3ad        0x6 common/built-in.o
 .rodata.ip_to_string.str1.1
                0x000000008785d3b3        0xc net/built-in.o
 .rodata.is_gpt_valid.str1.1
                0x000000008785d3bf       0xea disk/built-in.o
 .rodata.list_sort.str1.1
                0x000000008785d4a9       0x34 lib/built-in.o
 .rodata.lists_bind_drivers.str1.1
                0x000000008785d4dd       0x1a drivers/built-in.o
 .rodata.lmb_alloc_base.str1.1
                0x000000008785d4f7       0x34 lib/built-in.o
 .rodata.load_serial.str1.1
                0x000000008785d52b       0x65 cmd/built-in.o
 .rodata.load_serial_ymodem.str1.1
                0x000000008785d590       0x31 cmd/built-in.o
                                         0x35 (size before relaxing)
 .rodata.main_loop.str1.1
                0x000000008785d5c1       0x11 common/built-in.o
 .rodata.manufacturer
                0x000000008785d5d2        0x4 drivers/usb/gadget/built-in.o
 .rodata.match.str1.1
                0x000000008785d5d6       0x18 lib/built-in.o
 .rodata.match_entry.str1.1
                0x000000008785d5ee       0x1b lib/built-in.o
 .rodata.match_string.str1.1
                0x000000008785d5ee       0x2c lib/built-in.o
 .rodata.mdio_list_devices.str1.1
                0x000000008785d61a       0x17 common/built-in.o
                                         0x19 (size before relaxing)
 .rodata.mdio_phydev_for_ethname.str1.1
                0x000000008785d631       0x1c common/built-in.o
 .rodata.mdio_register.str1.1
                0x000000008785d64d       0x2c common/built-in.o
 .rodata.miiphy_duplex.str1.1
                0x000000008785d679       0x4f common/built-in.o
 .rodata.miiphy_get_dev_by_name.str1.1
                0x000000008785d6c8       0x13 common/built-in.o
 .rodata.miiphy_listdev.str1.1
                0x000000008785d6db       0x2a common/built-in.o
 .rodata.miiphy_set_current_dev.str1.1
                0x000000008785d705       0x14 common/built-in.o
 .rodata.miiphy_speed.str1.1
                0x000000008785d719       0x49 common/built-in.o
 .rodata.mmc_berase.str1.1
                0x000000008785d762       0x6f drivers/built-in.o
 .rodata.mmc_bread.str1.1
                0x000000008785d7d1       0x47 drivers/built-in.o
 .rodata.mmc_bwrite.str1.1
                0x000000008785d818       0x12 drivers/built-in.o
                                         0x59 (size before relaxing)
 .rodata.mmc_get_env_dev.str1.1
                0x000000008785d82a        0x7 arch/arm/mach-imx/built-in.o
 .rodata.mmc_hwpart_config.str1.1
                0x000000008785d831      0x19f drivers/built-in.o
 .rodata.mmc_mode_name.str1.1
                0x000000008785d9d0        0xd drivers/built-in.o
 .rodata.mmc_send_status.str1.1
                0x000000008785d9dd       0x32 drivers/built-in.o
 .rodata.mmc_start_init.str1.1
                0x000000008785da0f       0x3f drivers/built-in.o
 .rodata.mmc_startup.str1.1
                0x000000008785da4e       0x4f drivers/built-in.o
                                         0x55 (size before relaxing)
 .rodata.mod_i2c_mem.isra.3.str1.1
                0x000000008785da9d       0x21 cmd/built-in.o
                                         0x28 (size before relaxing)
 .rodata.mod_mem.isra.0.str1.1
                0x000000008785dabe        0xc cmd/built-in.o
                                         0x1d (size before relaxing)
 .rodata.multipliers
                0x000000008785daca       0x10 drivers/built-in.o
 .rodata.mxc_get_clock.str1.1
                0x000000008785dada       0x1a arch/arm/mach-imx/built-in.o
 .rodata.mxc_get_pll_ddr_derive.str1.1
                0x000000008785daf4       0x20 arch/arm/mach-imx/built-in.o
 .rodata.mxs_set_lcdclk.str1.1
                0x000000008785db14       0x2d arch/arm/mach-imx/built-in.o
 .rodata.name.9956
                0x000000008785db41        0xa drivers/power/pmic/built-in.o
 .rodata.names.9016
                0x000000008785db4b        0x6 lib/built-in.o
 .rodata.net_auto_load.str1.1
                0x000000008785db51        0xd net/built-in.o
 .rodata.net_bcast_ethaddr
                0x000000008785db5e        0x6 net/built-in.o
                0x000000008785db5e                net_bcast_ethaddr
 .rodata.net_loop.str1.1
                0x000000008785db64       0xe5 net/built-in.o
                                         0xf7 (size before relaxing)
 .rodata.net_process_received_packet.str1.1
                0x000000008785dc49       0x1d net/built-in.o
 .rodata.net_start_again.str1.1
                0x000000008785dc66        0xe net/built-in.o
                                         0x15 (size before relaxing)
 .rodata.netboot_common.str1.1
                0x000000008785dc74       0x16 cmd/built-in.o
                                         0x4a (size before relaxing)
 .rodata.nfs_handler.str1.1
                0x000000008785dc8a       0x56 net/built-in.o
 .rodata.nfs_lookup_reply.str1.1
                0x000000008785dce0       0x25 net/built-in.o
                                         0x27 (size before relaxing)
 .rodata.nfs_read_reply.isra.0.str1.1
                0x000000008785dd05        0x4 net/built-in.o
 .rodata.nfs_readlink_reply.str1.1
                0x000000008785dd09        0x2 net/built-in.o
 .rodata.nfs_start.str1.1
                0x000000008785dd09       0x1e net/built-in.o
                                         0x1f (size before relaxing)
 .rodata.nfs_timeout_handler.str1.1
                0x000000008785dd27       0x2a net/built-in.o
 .rodata.on_baudrate.str1.1
                0x000000008785dd51       0x42 drivers/serial/built-in.o
                                         0x74 (size before relaxing)
 .rodata.on_callbacks.str1.1
                0x000000008785dd93      0x105 env/built-in.o
 .rodata.on_console.str1.1
                0x000000008785de98       0x10 common/built-in.o
                                         0x27 (size before relaxing)
 .rodata.on_ethaddr.str1.1
                0x000000008785de98       0xd4 net/built-in.o
                                          0x4 (size before relaxing)
 .rodata.on_flags.str1.1
                0x000000008785de98       0x50 env/built-in.o
 .rodata.parse_argv.str1.1
                0x000000008785dee8        0x6 cmd/built-in.o
                                          0xd (size before relaxing)
 .rodata.parse_attr.part.1.str1.1
                0x000000008785deee       0x1a lib/built-in.o
                                         0x23 (size before relaxing)
 .rodata.parse_env.isra.7.constprop.13.str1.1
                0x000000008785df08       0x11 drivers/usb/gadget/built-in.o
 .rodata.parse_stream_outer.str1.1
                0x000000008785df19       0x4d common/built-in.o
 .rodata.parse_string_outer.str1.1
                0x000000008785df66        0x2 common/built-in.o
 .rodata.part_get_info_efi.str1.1
                0x000000008785df66        0xa disk/built-in.o
 .rodata.part_get_info_extended.constprop.1.str1.1
                0x000000008785df66        0x7 disk/built-in.o
 .rodata.part_get_info_whole_disk.str1.1
                0x000000008785df66        0xb disk/built-in.o
                                         0x12 (size before relaxing)
 .rodata.part_print.str1.1
                0x000000008785df71       0x87 disk/built-in.o
                                         0x90 (size before relaxing)
 .rodata.part_print_dos.str1.1
                0x000000008785dff8       0x2a disk/built-in.o
 .rodata.part_print_efi.str1.1
                0x000000008785e022       0xf9 disk/built-in.o
 .rodata.part_set_generic_name.str1.1
                0x000000008785e11b        0xa disk/built-in.o
 .rodata.phy_connect_dev.str1.1
                0x000000008785e125       0x2f drivers/net/phy/built-in.o
 .rodata.phy_reset.str1.1
                0x000000008785e154       0x15 drivers/net/phy/built-in.o
 .rodata.ping_start.str1.1
                0x000000008785e169       0x11 net/built-in.o
 .rodata.pmic_alloc.str1.1
                0x000000008785e17a       0x29 drivers/power/built-in.o
 .rodata.pmic_probe.str1.1
                0x000000008785e1a3       0x14 drivers/power/built-in.o
 .rodata.pmic_reg_write.str1.1
                0x000000008785e1b7       0x17 drivers/power/built-in.o
 .rodata.power_init_board.str1.1
                0x000000008785e1ce       0x33 board/technexion/pico-imx7d/built-in.o
 .rodata.power_pfuze3000_init.str1.1
                0x000000008785e201       0x1d drivers/power/pmic/built-in.o
 .rodata.prepare_access.str1.1
                0x000000008785e21e       0x22 drivers/built-in.o
 .rodata.print_buffer.str1.1
                0x000000008785e240        0x6 lib/built-in.o
                                         0x17 (size before relaxing)
 .rodata.print_cpuinfo.str1.1
                0x000000008785e246      0x159 arch/arm/mach-imx/built-in.o
                                        0x177 (size before relaxing)
 .rodata.print_data.str1.1
                0x000000008785e39f       0x27 cmd/built-in.o
                                         0x32 (size before relaxing)
 .rodata.print_freq.str1.1
                0x000000008785e3c6       0x1b lib/built-in.o
 .rodata.print_mmc_devices.str1.1
                0x000000008785e3e1       0x12 drivers/built-in.o
                                         0x1c (size before relaxing)
 .rodata.print_num.str1.1
                0x000000008785e3f3       0x10 cmd/built-in.o
 .rodata.print_partition_extended.str1.1
                0x000000008785e403       0x83 disk/built-in.o
                                         0x84 (size before relaxing)
 .rodata.print_size.str1.1
                0x000000008785e486       0x15 lib/built-in.o
 .rodata.product
                0x000000008785e49b       0x14 drivers/usb/gadget/built-in.o
 .rodata.quantifier.str1.1
                0x000000008785e4af       0x17 lib/built-in.o
 .rodata.read_bootsectandvi.str1.1
                0x000000008785e4c6       0x1b fs/built-in.o
 .rodata.realloc.str1.1
                0x000000008785e4e1       0x25 common/built-in.o
 .rodata.regex_callback.str1.1
                0x000000008785e506        0x5 env/built-in.o
                                         0x20 (size before relaxing)
 .rodata.regex_sub.part.1.str1.1
                0x000000008785e50b       0xbd cmd/built-in.o
 .rodata.run_list_real.str1.1
                0x000000008785e5c8       0x45 common/built-in.o
                                         0x4b (size before relaxing)
 .rodata.rx_handler_command.str1.1
                0x000000008785e60d       0x3e drivers/usb/gadget/built-in.o
                                         0x4e (size before relaxing)
 .rodata.rx_handler_dl_image.str1.1
                0x000000008785e64b       0x52 drivers/usb/gadget/built-in.o
 .rodata.set_default_env.str1.1
                0x000000008785e69d       0x2e env/built-in.o
                                         0x55 (size before relaxing)
 .rodata.set_local_var.str1.1
                0x000000008785e6cb       0x59 common/built-in.o
 .rodata.set_working_fdt_addr.str1.1
                0x000000008785e724        0x8 cmd/built-in.o
 .rodata.setup_i2c.str1.1
                0x000000008785e72c       0x18 arch/arm/mach-imx/built-in.o
 .rodata.sha1_padding
                0x000000008785e744       0x40 lib/built-in.o
 .rodata.show_devices.str1.1
                0x000000008785e784       0x2d drivers/built-in.o
                                         0x36 (size before relaxing)
 .rodata.show_dram_config.str1.1
                0x000000008785e7b1        0x1 common/built-in.o
 .rodata.show_regs.str1.1
                0x000000008785e7b1       0xff arch/arm/lib/built-in.o
                                        0x129 (size before relaxing)
 .rodata.sleep_thread.isra.17.str1.1
                0x000000008785e8b0        0xc drivers/usb/gadget/built-in.o
 .rodata.smbios_guid
                0x000000008785e8bc       0x10 lib/built-in.o
 .rodata.smbios_write_type0.str1.1
                0x000000008785e8cc        0xb lib/built-in.o
                                         0x4f (size before relaxing)
 .rodata.smbios_write_type1.str1.1
                0x000000008785e8d7        0x8 lib/built-in.o
 .rodata.smbios_write_type2.str1.1
                0x000000008785e8d7        0xb lib/built-in.o
 .rodata.smbios_write_type3.str1.1
                0x000000008785e8e2        0xb lib/built-in.o
 .rodata.smbios_write_type4.str1.1
                0x000000008785e8ed        0x8 lib/built-in.o
 .rodata.source.str1.1
                0x000000008785e8ed       0xfe cmd/built-in.o
                                        0x114 (size before relaxing)
 .rodata.splash_get_pos.str1.1
                0x000000008785e9eb        0xa common/built-in.o
 .rodata.splash_select_fs_dev.str1.1
                0x000000008785e9f5       0x51 common/built-in.o
                                         0x59 (size before relaxing)
 .rodata.splash_source_load.str1.1
                0x000000008785ea46      0x1d7 common/built-in.o
 .rodata.splash_storage_read_raw.isra.2.str1.1
                0x000000008785ec1d       0x19 common/built-in.o
 .rodata.stdio_add_devices.str1.1
                0x000000008785ec36        0x8 common/built-in.o
                                          0xf (size before relaxing)
 .rodata.stdio_print_current_devices.str1.1
                0x000000008785ec3e       0x70 common/built-in.o
                                         0x74 (size before relaxing)
 .rodata.store_char_in_data.str1.1
                0x000000008785ecae       0x1f lib/built-in.o
 .rodata.str1.1
                0x000000008785eccd       0xeb arch/arm/lib/built-in.o
 .rodata.str1.1
                0x000000008785edb8      0x15f arch/arm/mach-imx/built-in.o
                                        0x168 (size before relaxing)
 .rodata.str1.1
                0x000000008785ef17        0x9 board/technexion/pico-imx7d/built-in.o
 .rodata.str1.1
                0x000000008785ef20     0x2fa5 cmd/built-in.o
                                       0x316e (size before relaxing)
 .rodata.str1.1
                0x0000000087861ec5      0x78d common/built-in.o
                                        0x7ff (size before relaxing)
 .rodata.str1.1
                0x0000000087862652       0x1b disk/built-in.o
                                         0x1e (size before relaxing)
 .rodata.str1.1
                0x000000008786266d      0x143 drivers/built-in.o
                                        0x15d (size before relaxing)
 .rodata.str1.1
                0x00000000878627b0       0x14 drivers/i2c/built-in.o
 .rodata.str1.1
                0x00000000878627c4       0xa8 drivers/net/phy/built-in.o
                                         0xc1 (size before relaxing)
 .rodata.str1.1
                0x000000008786286c       0xff drivers/power/built-in.o
 .rodata.str1.1
                0x000000008786296b        0x9 drivers/serial/built-in.o
 .rodata.str1.1
                0x000000008786296b       0x7f drivers/usb/gadget/built-in.o
                                         0xa2 (size before relaxing)
 .rodata.str1.1
                0x00000000878629ea      0x105 env/built-in.o
                                         0x14 (size before relaxing)
 .rodata.str1.1
                0x00000000878629ea       0x10 fs/built-in.o
 .rodata.str1.1
                0x00000000878629fa      0x1a1 lib/built-in.o
                                        0x1a6 (size before relaxing)
 .rodata.str1.1
                0x0000000087862b9b        0x6 net/built-in.o
                                         0x3e (size before relaxing)
 .rodata.str1.1
                0x0000000087862ba1       0xdc test/dm/built-in.o
                                         0xe2 (size before relaxing)
 .rodata.string.str1.1
                0x0000000087862c7d        0x7 lib/built-in.o
 .rodata.submit_control_msg.str1.1
                0x0000000087862c84       0x16 drivers/usb/host/built-in.o
 .rodata.submit_int_msg.str1.1
                0x0000000087862c9a       0x24 drivers/usb/host/built-in.o
 .rodata.substitute.str1.1
                0x0000000087862cbe       0x28 cmd/built-in.o
 .rodata.syntax_err.str1.1
                0x0000000087862ce6        0xe common/built-in.o
 .rodata.tab_seq
                0x0000000087862cf4        0x9 common/built-in.o
 .rodata.test_block_type.str1.1
                0x0000000087862cfd        0xa disk/built-in.o
 .rodata.tftp_handler.str1.1
                0x0000000087862d07       0x72 net/built-in.o
                                         0x80 (size before relaxing)
 .rodata.tftp_send.str1.1
                0x0000000087862d79       0x36 net/built-in.o
                                         0x42 (size before relaxing)
 .rodata.tftp_start.str1.1
                0x0000000087862daf      0x156 net/built-in.o
                                        0x181 (size before relaxing)
 .rodata.tftp_timeout_handler.str1.1
                0x0000000087862f05       0x2a net/built-in.o
                                         0x2d (size before relaxing)
 .rodata.u_boot_hush_start.str1.1
                0x0000000087862f2f       0x12 common/built-in.o
 .rodata.uclass_resolve_seq.str1.1
                0x0000000087862f41       0x27 drivers/built-in.o
 .rodata.udc_irq.str1.1
                0x0000000087862f68       0x27 drivers/usb/gadget/built-in.o
                                         0x2e (size before relaxing)
 .rodata.us_direction
                0x0000000087862f8f       0x20 common/built-in.o
 .rodata.usb_alloc_new_device.str1.1
                0x0000000087862faf       0x25 common/built-in.o
 .rodata.usb_composite_register.str1.1
                0x0000000087862fd4        0xa drivers/usb/gadget/built-in.o
 .rodata.usb_display_class_sub.str1.1
                0x0000000087862fde       0xb6 cmd/built-in.o
                                         0xbc (size before relaxing)
 .rodata.usb_display_config.str1.1
                0x0000000087863094      0x10d cmd/built-in.o
                                        0x118 (size before relaxing)
 .rodata.usb_display_desc.str1.1
                0x00000000878631a1       0xac cmd/built-in.o
                                         0xae (size before relaxing)
 .rodata.usb_display_string.str1.1
                0x000000008786324d        0xd cmd/built-in.o
 .rodata.usb_find_usb2_hub_address_port.str1.1
                0x000000008786325a       0x36 common/built-in.o
 .rodata.usb_get_class_desc.str1.1
                0x0000000087863290       0x64 cmd/built-in.o
                                         0x65 (size before relaxing)
 .rodata.usb_get_configuration_len.str1.1
                0x00000000878632f4       0x58 common/built-in.o
 .rodata.usb_host_eth_scan.str1.1
                0x000000008786334c       0xa3 drivers/usb/eth/built-in.o
 .rodata.usb_hub_configure.str1.1
                0x00000000878633ef       0x80 common/built-in.o
 .rodata.usb_hub_port_connect_change.str1.1
                0x000000008786346f       0x39 common/built-in.o
 .rodata.usb_init.str1.1
                0x00000000878634a8       0xb3 common/built-in.o
 .rodata.usb_lowlevel_init.str1.1
                0x000000008786355b       0x26 drivers/usb/host/built-in.o
 .rodata.usb_select_config.str1.1
                0x0000000087863581      0x220 common/built-in.o
 .rodata.usb_set_interface.str1.1
                0x00000000878637a1       0x1f common/built-in.o
 .rodata.usb_setup_descriptor.str1.1
                0x00000000878637c0       0x1d common/built-in.o
 .rodata.usb_setup_device.str1.1
                0x00000000878637dd       0x68 common/built-in.o
 .rodata.usb_show_tree_graph.str1.1
                0x0000000087863845       0x2f cmd/built-in.o
                                         0x3a (size before relaxing)
 .rodata.usb_stop.str1.1
                0x0000000087863874       0x22 common/built-in.o
 .rodata.usb_stor_CBI_get_status.isra.5.str1.1
                0x0000000087863896       0x1f common/built-in.o
 .rodata.usb_stor_CB_transport.str1.1
                0x00000000878638b5       0x6e common/built-in.o
 .rodata.usb_stor_get_info.str1.1
                0x0000000087863923       0x5d common/built-in.o
 .rodata.usb_stor_info.str1.1
                0x0000000087863980       0x32 common/built-in.o
                                         0x40 (size before relaxing)
 .rodata.usb_stor_scan.str1.1
                0x00000000878639b2       0x75 common/built-in.o
 .rodata.usb_storage_probe.str1.1
                0x0000000087863a27       0x5c common/built-in.o
 .rodata.uuid_bin_to_str.str1.1
                0x0000000087863a83        0x5 lib/built-in.o
 .rodata.valid_elf_image.str1.1
                0x0000000087863a83       0x52 cmd/built-in.o
 .rodata.validate_gpt_header.str1.1
                0x0000000087863ad5       0xe1 disk/built-in.o
 .rodata.var_complete.str1.1
                0x0000000087863bb6        0x1 common/built-in.o
 .rodata.vendor_id.10149
                0x0000000087863bb6        0x9 drivers/usb/gadget/built-in.o
 .rodata.version_string
                0x0000000087863bbf       0x63 cmd/built-in.o
                0x0000000087863bbf                version_string
 .rodata.video_display_bitmap.str1.1
                0x0000000087863c22       0xf5 drivers/built-in.o
 .rodata.video_get_params.str1.1
                0x0000000087863d17       0x50 drivers/built-in.o
                                         0x5d (size before relaxing)
 .rodata.video_hw_init.str1.1
                0x0000000087863d67       0x91 drivers/built-in.o
                                         0x95 (size before relaxing)
 .rodata.wait_for_sr_state.str1.1
                0x0000000087863df8       0x4c drivers/i2c/built-in.o
 .rodata.write_backup_gpt.str1.1
                0x0000000087863e44       0x70 drivers/usb/gadget/built-in.o
 .rodata.write_mbr_and_gpt_partitions.str1.1
                0x0000000087863eb4       0x7c disk/built-in.o
 .rodata.write_smbios_table.str1.1
                0x0000000087863f30        0xb lib/built-in.o
 .rodata.write_sparse_image.str1.1
                0x0000000087863f3b      0x1f9 common/built-in.o
                                        0x1fa (size before relaxing)
 .rodata.xmalloc.str1.1
                0x0000000087864134       0x1e common/built-in.o
 .rodata.xyzModem_error.str1.1
                0x0000000087864152        0xe common/built-in.o
 .rodata.xyzModem_stream_close.str1.1
                0x0000000087864160       0x47 common/built-in.o
                                         0x4b (size before relaxing)
 .rodata.xyzModem_stream_open.str1.1
                0x00000000878641a7        0x2 common/built-in.o
 .rodata.zunzip.str1.1
                0x00000000878641a7       0x47 lib/built-in.o

.hash           0x00000000878641f0       0x18
 .hash          0x00000000878641f0       0x18 arch/arm/cpu/armv7/start.o
                0x0000000087864208                . = ALIGN (0x4)

.data           0x0000000087864208    0x1970c
 *(.data*)
 .data.rel.ro   0x0000000087864208        0x0 arch/arm/cpu/armv7/start.o
 .data.base     0x0000000087864208        0x4 arch/arm/mach-imx/built-in.o
 .data.reset_cause
                0x000000008786420c        0x4 arch/arm/mach-imx/built-in.o
 .data.ccm_anatop
                0x0000000087864210        0x4 arch/arm/mach-imx/built-in.o
                0x0000000087864210                ccm_anatop
 .data.ccm_reg  0x0000000087864214        0x4 arch/arm/mach-imx/built-in.o
                0x0000000087864214                ccm_reg
 .data.imx_ccm  0x0000000087864218        0x4 arch/arm/mach-imx/built-in.o
                0x0000000087864218                imx_ccm
 .data.root_array
                0x000000008786421c      0x470 arch/arm/mach-imx/built-in.o
 *fill*         0x000000008786468c        0x4 
 .data.i2c_pad_info1
                0x0000000087864690       0x30 board/technexion/pico-imx7d/built-in.o
                0x0000000087864690                i2c_pad_info1
 .data.i2c_pad_info2
                0x00000000878646c0       0x30 board/technexion/pico-imx7d/built-in.o
                0x00000000878646c0                i2c_pad_info2
 .data.i2c_pad_info4
                0x00000000878646f0       0x30 board/technexion/pico-imx7d/built-in.o
                0x00000000878646f0                i2c_pad_info4
 .data.usdhc_cfg
                0x0000000087864720       0x68 board/technexion/pico-imx7d/built-in.o
 .data.bootm_help_text
                0x0000000087864788      0x4cf cmd/built-in.o
 *fill*         0x0000000087864c57        0x1 
 .data.cmd_bootm_sub
                0x0000000087864c58       0xfc cmd/built-in.o
 .data.source_help_text
                0x0000000087864d54       0xac cmd/built-in.o
 .data.cmd_bmp_sub
                0x0000000087864e00       0x38 cmd/built-in.o
 .data.bootefi_help_text
                0x0000000087864e38      0x188 cmd/built-in.o
 .data.bootz_help_text
                0x0000000087864fc0      0x208 cmd/built-in.o
 .data.fdt_help_text
                0x00000000878651c8      0x689 cmd/built-in.o
 .data.root.8968
                0x0000000087865851        0x2 cmd/built-in.o
 .data.tabs.9053
                0x0000000087865853       0x21 cmd/built-in.o
 .data.cmd_i2c_sub
                0x0000000087865874      0x16c cmd/built-in.o
 .data.i2c_dp_last_length
                0x00000000878659e0        0x4 cmd/built-in.o
 .data.i2c_help_text
                0x00000000878659e4      0x37c cmd/built-in.o
 .data.do_echo  0x0000000087865d60        0x4 cmd/built-in.o
 .data.dp_last_length
                0x0000000087865d64        0x4 cmd/built-in.o
 .data.cmd_mmc  0x0000000087865d68      0x188 cmd/built-in.o
 .data.curr_device
                0x0000000087865ef0        0x4 cmd/built-in.o
 .data.usb_stor_curr_dev
                0x0000000087865ef4        0x4 cmd/built-in.o
 .data.imgextract_help_text
                0x0000000087865ef8       0xb2 cmd/built-in.o
 *fill*         0x0000000087865faa        0x2 
 .data.cmd_env_sub
                0x0000000087865fac      0x118 cmd/built-in.o
 .data.env_help_text
                0x00000000878660c4      0x24f cmd/built-in.o
 *fill*         0x0000000087866313        0x1 
 .data.env_id   0x0000000087866314        0x4 cmd/built-in.o
 .data.hash_algo
                0x0000000087866318       0x54 common/built-in.o
 .data.reserved_list
                0x000000008786636c       0x84 common/built-in.o
 .data.init_sequence_r
                0x00000000878663f0       0x80 common/built-in.o
 .data.usb_scan_list
                0x0000000087866470        0x8 common/built-in.o
 .data.default_splash_locations
                0x0000000087866478       0x70 common/built-in.o
 .data.hist_cur
                0x00000000878664e8        0x4 common/built-in.o
 .data.av_      0x00000000878664ec      0x408 common/built-in.o
 .data.sbrk_base
                0x00000000878668f4        0x4 common/built-in.o
 .data.trim_threshold
                0x00000000878668f8        0x4 common/built-in.o
 .data.load_addr
                0x00000000878668fc        0x4 common/built-in.o
                0x00000000878668fc                load_addr
 .data.stdio_names
                0x0000000087866900        0xc common/built-in.o
                0x0000000087866900                stdio_names
 .data.system_guid
                0x000000008786690c       0x10 disk/built-in.o
 .data.cur_dev_num
                0x000000008786691c        0x4 drivers/built-in.o
 .data.bmp_logo_bitmap
                0x0000000087866920    0x155cc drivers/built-in.o
                0x0000000087866920                bmp_logo_bitmap
 .data.bmp_logo_palette
                0x000000008787beec      0x1e0 drivers/built-in.o
                0x000000008787beec                bmp_logo_palette
 .data.nl.10268
                0x000000008787c0cc        0x4 drivers/built-in.o
 .data.video_fontdata
                0x000000008787c0d0     0x1000 drivers/built-in.o
 .data.video_logo_height
                0x000000008787d0d0        0x4 drivers/built-in.o
 .data.mxc_i2c_buses
                0x000000008787d0d4       0x70 drivers/i2c/built-in.o
 .data.genphy_driver
                0x000000008787d144       0x34 drivers/net/phy/built-in.o
 .data.phy_drivers
                0x000000008787d178        0x8 drivers/net/phy/built-in.o
 .data.BCM5461S_driver
                0x000000008787d180       0x34 drivers/net/phy/built-in.o
 .data.BCM5464S_driver
                0x000000008787d1b4       0x34 drivers/net/phy/built-in.o
 .data.BCM5482S_driver
                0x000000008787d1e8       0x34 drivers/net/phy/built-in.o
 .data.BCM_CYGNUS_driver
                0x000000008787d21c       0x34 drivers/net/phy/built-in.o
 .data.pmic_list
                0x000000008787d250        0x8 drivers/power/built-in.o
 .data.mxc_serial_drv
                0x000000008787d258       0x30 drivers/serial/built-in.o
 .data.one_time_rx_line_always_low_workaround_needed
                0x000000008787d288        0x4 drivers/serial/built-in.o
 .data.ci_ep_ops
                0x000000008787d28c       0x28 drivers/usb/gadget/built-in.o
 .data.ci_udc_ops
                0x000000008787d2b4       0x2c drivers/usb/gadget/built-in.o
 .data.controller
                0x000000008787d2e0      0x190 drivers/usb/gadget/built-in.o
 .data.ep0_desc
                0x000000008787d470        0x9 drivers/usb/gadget/built-in.o
 *fill*         0x000000008787d479        0x3 
 .data.composite_driver
                0x000000008787d47c       0x24 drivers/usb/gadget/built-in.o
 .data.device_desc
                0x000000008787d4a0       0x12 drivers/usb/gadget/built-in.o
 *fill*         0x000000008787d4b2        0x2 
 .data.g_dnl_composite_strings
                0x000000008787d4b4        0x8 drivers/usb/gadget/built-in.o
 .data.g_dnl_driver
                0x000000008787d4bc       0x24 drivers/usb/gadget/built-in.o
 .data.g_dnl_string_defs
                0x000000008787d4e0       0x20 drivers/usb/gadget/built-in.o
 .data.g_dnl_string_tab
                0x000000008787d500        0x8 drivers/usb/gadget/built-in.o
 .data.qw_sign_buf
                0x000000008787d508        0x7 drivers/usb/gadget/built-in.o
 .data.fsg_fs_bulk_in_desc
                0x000000008787d50f        0x9 drivers/usb/gadget/built-in.o
 .data.fsg_fs_bulk_out_desc
                0x000000008787d518        0x9 drivers/usb/gadget/built-in.o
 *fill*         0x000000008787d521        0x3 
 .data.fsg_fs_function
                0x000000008787d524       0x10 drivers/usb/gadget/built-in.o
 .data.fsg_hs_bulk_in_desc
                0x000000008787d534        0x9 drivers/usb/gadget/built-in.o
 .data.fsg_hs_bulk_out_desc
                0x000000008787d53d        0x9 drivers/usb/gadget/built-in.o
 *fill*         0x000000008787d546        0x2 
 .data.fsg_hs_function
                0x000000008787d548       0x10 drivers/usb/gadget/built-in.o
 .data.fsg_intf_desc
                0x000000008787d558        0x9 drivers/usb/gadget/built-in.o
 *fill*         0x000000008787d561        0x3 
 .data.fsg_strings
                0x000000008787d564       0x10 drivers/usb/gadget/built-in.o
 .data.fsg_strings_array
                0x000000008787d574        0x8 drivers/usb/gadget/built-in.o
 .data.fsg_stringtab
                0x000000008787d57c        0x8 drivers/usb/gadget/built-in.o
 .data.fastboot_common_var
                0x000000008787d584       0x34 drivers/usb/gadget/built-in.o
                0x000000008787d584                fastboot_common_var
 .data.fastboot_devinfo
                0x000000008787d5b8        0x2 drivers/usb/gadget/built-in.o
                0x000000008787d5b8                fastboot_devinfo
 *fill*         0x000000008787d5ba        0x2 
 .data.fastboot_string_defs
                0x000000008787d5bc       0x10 drivers/usb/gadget/built-in.o
 .data.fastboot_strings
                0x000000008787d5cc        0x8 drivers/usb/gadget/built-in.o
 .data.fb_cid   0x000000008787d5d4       0x10 drivers/usb/gadget/built-in.o
 .data.fb_ext_prop
                0x000000008787d5e4       0x1c drivers/usb/gadget/built-in.o
 .data.fb_ext_prop_data
                0x000000008787d600       0x27 drivers/usb/gadget/built-in.o
 .data.fb_ext_prop_name
                0x000000008787d627       0x14 drivers/usb/gadget/built-in.o
 *fill*         0x000000008787d63b        0x1 
 .data.fb_fs_function
                0x000000008787d63c        0xc drivers/usb/gadget/built-in.o
 .data.fb_hs_function
                0x000000008787d648       0x10 drivers/usb/gadget/built-in.o
 .data.fb_os_desc
                0x000000008787d658       0x14 drivers/usb/gadget/built-in.o
 .data.fb_os_desc_table
                0x000000008787d66c        0x8 drivers/usb/gadget/built-in.o
 .data.fb_ss_bulk_comp_desc
                0x000000008787d674        0x6 drivers/usb/gadget/built-in.o
 *fill*         0x000000008787d67a        0x2 
 .data.fb_ss_function
                0x000000008787d67c       0x18 drivers/usb/gadget/built-in.o
 .data.fs_ep_in
                0x000000008787d694        0x9 drivers/usb/gadget/built-in.o
 .data.fs_ep_out
                0x000000008787d69d        0x9 drivers/usb/gadget/built-in.o
 .data.hs_ep_in
                0x000000008787d6a6        0x9 drivers/usb/gadget/built-in.o
 .data.hs_ep_out
                0x000000008787d6af        0x9 drivers/usb/gadget/built-in.o
 .data.interface
                0x000000008787d6b8       0x20 drivers/usb/gadget/built-in.o
 .data.interface_desc
                0x000000008787d6d8        0x9 drivers/usb/gadget/built-in.o
 .data.ss_ep_in
                0x000000008787d6e1        0x9 drivers/usb/gadget/built-in.o
 .data.ss_ep_out
                0x000000008787d6ea        0x9 drivers/usb/gadget/built-in.o
 *fill*         0x000000008787d6f3        0x1 
 .data.stringtab_fastboot
                0x000000008787d6f4        0x8 drivers/usb/gadget/built-in.o
 .data.descriptor
                0x000000008787d6fc       0x39 drivers/usb/host/built-in.o
 *fill*         0x000000008787d735        0x3 
 .data.env_htab
                0x000000008787d738       0x10 env/built-in.o
                0x000000008787d738                env_htab
 .data.first_call
                0x000000008787d748        0x8 env/built-in.o
 .data.fstypes  0x000000008787d750       0x70 fs/built-in.o
 .data.efi_is_direct_boot
                0x000000008787d7c0        0x1 lib/built-in.o
 *fill*         0x000000008787d7c1        0x3 
 .data.efi_obj_list
                0x000000008787d7c4        0x8 lib/built-in.o
                0x000000008787d7c4                efi_obj_list
 .data.efi_tpl  0x000000008787d7cc        0x4 lib/built-in.o
 .data.efi_runtime_mmio
                0x000000008787d7d0        0x8 lib/built-in.o
                0x000000008787d7d0                efi_runtime_mmio
 .data.lastoff.11303
                0x000000008787d7d8        0x4 lib/built-in.o
 .data.efi_con_in
                0x000000008787d7dc        0xc lib/built-in.o
                0x000000008787d7dc                efi_con_in
 .data.efi_con_mode
                0x000000008787d7e8       0x18 lib/built-in.o
 .data.efi_con_out
                0x000000008787d800       0x28 lib/built-in.o
                0x000000008787d800                efi_con_out
 .data.efi_console_control
                0x000000008787d828        0xc lib/built-in.o
                0x000000008787d828                efi_console_control
 .data.efi_cout_modes
                0x000000008787d834       0x24 lib/built-in.o
 .data.efi_mem  0x000000008787d858        0x8 lib/built-in.o
                0x000000008787d858                efi_mem
 .data.sha256_padding
                0x000000008787d860       0x40 lib/built-in.o
 .data.first_call.9448
                0x000000008787d8a0        0x4 net/built-in.o
 .data.net_native_vlan
                0x000000008787d8a4        0x2 net/built-in.o
                0x000000008787d8a4                net_native_vlan
 .data.net_our_vlan
                0x000000008787d8a6        0x2 net/built-in.o
                0x000000008787d8a6                net_our_vlan
 .data.nfs_offset
                0x000000008787d8a8        0x4 net/built-in.o
 .data.supported_nfs_versions
                0x000000008787d8ac        0x1 net/built-in.o
 *fill*         0x000000008787d8ad        0x1 
 .data.tftp_block_size
                0x000000008787d8ae        0x2 net/built-in.o
 .data.tftp_block_size_option
                0x000000008787d8b0        0x2 net/built-in.o
 *fill*         0x000000008787d8b2        0x2 
 .data.tftp_timeout_count_max
                0x000000008787d8b4        0x4 net/built-in.o
                0x000000008787d8b4                tftp_timeout_count_max
 .data.timeout_count_max
                0x000000008787d8b8        0x4 net/built-in.o
 .data.timeout_ms
                0x000000008787d8bc        0x4 net/built-in.o
 .data.test_commands
                0x000000008787d8c0       0x54 test/dm/built-in.o

.got            0x000000008787d914        0x0
 .got           0x000000008787d914        0x0 arch/arm/cpu/armv7/start.o

.got.plt        0x000000008787d914        0xc
 .got.plt       0x000000008787d914        0xc arch/arm/cpu/armv7/start.o
                0x000000008787d914                _GLOBAL_OFFSET_TABLE_

.igot.plt       0x000000008787d920        0x0
 .igot.plt      0x000000008787d920        0x0 arch/arm/cpu/armv7/start.o
                0x000000008787d920                . = ALIGN (0x4)
                0x000000008787d920                . = .
                0x000000008787d920                . = ALIGN (0x4)

.u_boot_list    0x000000008787d920      0xbe8
 *(SORT_BY_NAME(.u_boot_list*))
 .u_boot_list_2_blk_driver_1
                0x000000008787d920        0x0 drivers/built-in.o
 .u_boot_list_2_blk_driver_2_mmc
                0x000000008787d920       0x18 drivers/built-in.o
                0x000000008787d920                _u_boot_list_2_blk_driver_2_mmc
 .u_boot_list_2_blk_driver_2_usb
                0x000000008787d938       0x18 common/built-in.o
                0x000000008787d938                _u_boot_list_2_blk_driver_2_usb
 .u_boot_list_2_blk_driver_3
                0x000000008787d950        0x0 drivers/built-in.o
 .u_boot_list_2_cmd_1
                0x000000008787d950        0x0 cmd/built-in.o
 .u_boot_list_2_cmd_1
                0x000000008787d950        0x0 common/built-in.o
 .u_boot_list_2_cmd_2_base
                0x000000008787d950       0x1c cmd/built-in.o
                0x000000008787d950                _u_boot_list_2_cmd_2_base
 .u_boot_list_2_cmd_2_bdinfo
                0x000000008787d96c       0x1c cmd/built-in.o
                0x000000008787d96c                _u_boot_list_2_cmd_2_bdinfo
 .u_boot_list_2_cmd_2_bmode
                0x000000008787d988       0x1c arch/arm/mach-imx/built-in.o
                0x000000008787d988                _u_boot_list_2_cmd_2_bmode
 .u_boot_list_2_cmd_2_bmp
                0x000000008787d9a4       0x1c cmd/built-in.o
                0x000000008787d9a4                _u_boot_list_2_cmd_2_bmp
 .u_boot_list_2_cmd_2_boot
                0x000000008787d9c0       0x1c cmd/built-in.o
                0x000000008787d9c0                _u_boot_list_2_cmd_2_boot
 .u_boot_list_2_cmd_2_bootaux
                0x000000008787d9dc       0x1c arch/arm/mach-imx/built-in.o
                0x000000008787d9dc                _u_boot_list_2_cmd_2_bootaux
 .u_boot_list_2_cmd_2_bootd
                0x000000008787d9f8       0x1c cmd/built-in.o
                0x000000008787d9f8                _u_boot_list_2_cmd_2_bootd
 .u_boot_list_2_cmd_2_bootefi
                0x000000008787da14       0x1c cmd/built-in.o
                0x000000008787da14                _u_boot_list_2_cmd_2_bootefi
 .u_boot_list_2_cmd_2_bootelf
                0x000000008787da30       0x1c cmd/built-in.o
                0x000000008787da30                _u_boot_list_2_cmd_2_bootelf
 .u_boot_list_2_cmd_2_bootm
                0x000000008787da4c       0x1c cmd/built-in.o
                0x000000008787da4c                _u_boot_list_2_cmd_2_bootm
 .u_boot_list_2_cmd_2_bootp
                0x000000008787da68       0x1c cmd/built-in.o
                0x000000008787da68                _u_boot_list_2_cmd_2_bootp
 .u_boot_list_2_cmd_2_bootvx
                0x000000008787da84       0x1c cmd/built-in.o
                0x000000008787da84                _u_boot_list_2_cmd_2_bootvx
 .u_boot_list_2_cmd_2_bootz
                0x000000008787daa0       0x1c cmd/built-in.o
                0x000000008787daa0                _u_boot_list_2_cmd_2_bootz
 .u_boot_list_2_cmd_2_clocks
                0x000000008787dabc       0x1c arch/arm/mach-imx/built-in.o
                0x000000008787dabc                _u_boot_list_2_cmd_2_clocks
 .u_boot_list_2_cmd_2_clrlogo
                0x000000008787dad8       0x1c drivers/built-in.o
                0x000000008787dad8                _u_boot_list_2_cmd_2_clrlogo
 .u_boot_list_2_cmd_2_cmp
                0x000000008787daf4       0x1c cmd/built-in.o
                0x000000008787daf4                _u_boot_list_2_cmd_2_cmp
 .u_boot_list_2_cmd_2_coninfo
                0x000000008787db10       0x1c cmd/built-in.o
                0x000000008787db10                _u_boot_list_2_cmd_2_coninfo
 .u_boot_list_2_cmd_2_cp
                0x000000008787db2c       0x1c cmd/built-in.o
                0x000000008787db2c                _u_boot_list_2_cmd_2_cp
 .u_boot_list_2_cmd_2_crc32
                0x000000008787db48       0x1c cmd/built-in.o
                0x000000008787db48                _u_boot_list_2_cmd_2_crc32
 .u_boot_list_2_cmd_2_dcache
                0x000000008787db64       0x1c cmd/built-in.o
                0x000000008787db64                _u_boot_list_2_cmd_2_dcache
 .u_boot_list_2_cmd_2_dhcp
                0x000000008787db80       0x1c cmd/built-in.o
                0x000000008787db80                _u_boot_list_2_cmd_2_dhcp
 .u_boot_list_2_cmd_2_dm
                0x000000008787db9c       0x1c test/dm/built-in.o
                0x000000008787db9c                _u_boot_list_2_cmd_2_dm
 .u_boot_list_2_cmd_2_echo
                0x000000008787dbb8       0x1c cmd/built-in.o
                0x000000008787dbb8                _u_boot_list_2_cmd_2_echo
 .u_boot_list_2_cmd_2_editenv
                0x000000008787dbd4       0x1c cmd/built-in.o
                0x000000008787dbd4                _u_boot_list_2_cmd_2_editenv
 .u_boot_list_2_cmd_2_env
                0x000000008787dbf0       0x1c cmd/built-in.o
                0x000000008787dbf0                _u_boot_list_2_cmd_2_env
 .u_boot_list_2_cmd_2_exit
                0x000000008787dc0c       0x1c cmd/built-in.o
                0x000000008787dc0c                _u_boot_list_2_cmd_2_exit
 .u_boot_list_2_cmd_2_false
                0x000000008787dc28       0x1c cmd/built-in.o
                0x000000008787dc28                _u_boot_list_2_cmd_2_false
 .u_boot_list_2_cmd_2_fastboot
                0x000000008787dc44       0x1c cmd/built-in.o
                0x000000008787dc44                _u_boot_list_2_cmd_2_fastboot
 .u_boot_list_2_cmd_2_fatinfo
                0x000000008787dc60       0x1c cmd/built-in.o
                0x000000008787dc60                _u_boot_list_2_cmd_2_fatinfo
 .u_boot_list_2_cmd_2_fatload
                0x000000008787dc7c       0x1c cmd/built-in.o
                0x000000008787dc7c                _u_boot_list_2_cmd_2_fatload
 .u_boot_list_2_cmd_2_fatls
                0x000000008787dc98       0x1c cmd/built-in.o
                0x000000008787dc98                _u_boot_list_2_cmd_2_fatls
 .u_boot_list_2_cmd_2_fatsize
                0x000000008787dcb4       0x1c cmd/built-in.o
                0x000000008787dcb4                _u_boot_list_2_cmd_2_fatsize
 .u_boot_list_2_cmd_2_fdt
                0x000000008787dcd0       0x1c cmd/built-in.o
                0x000000008787dcd0                _u_boot_list_2_cmd_2_fdt
 .u_boot_list_2_cmd_2_fstype
                0x000000008787dcec       0x1c cmd/built-in.o
                0x000000008787dcec                _u_boot_list_2_cmd_2_fstype
 .u_boot_list_2_cmd_2_fuse
                0x000000008787dd08       0x1c cmd/built-in.o
                0x000000008787dd08                _u_boot_list_2_cmd_2_fuse
 .u_boot_list_2_cmd_2_go
                0x000000008787dd24       0x1c cmd/built-in.o
                0x000000008787dd24                _u_boot_list_2_cmd_2_go
 .u_boot_list_2_cmd_2_gpio
                0x000000008787dd40       0x1c cmd/built-in.o
                0x000000008787dd40                _u_boot_list_2_cmd_2_gpio
 .u_boot_list_2_cmd_2_help
                0x000000008787dd5c       0x1c cmd/built-in.o
                0x000000008787dd5c                _u_boot_list_2_cmd_2_help
 .u_boot_list_2_cmd_2_i2c
                0x000000008787dd78       0x1c cmd/built-in.o
                0x000000008787dd78                _u_boot_list_2_cmd_2_i2c
 .u_boot_list_2_cmd_2_icache
                0x000000008787dd94       0x1c cmd/built-in.o
                0x000000008787dd94                _u_boot_list_2_cmd_2_icache
 .u_boot_list_2_cmd_2_iminfo
                0x000000008787ddb0       0x1c cmd/built-in.o
                0x000000008787ddb0                _u_boot_list_2_cmd_2_iminfo
 .u_boot_list_2_cmd_2_imxtract
                0x000000008787ddcc       0x1c cmd/built-in.o
                0x000000008787ddcc                _u_boot_list_2_cmd_2_imxtract
 .u_boot_list_2_cmd_2_itest
                0x000000008787dde8       0x1c cmd/built-in.o
                0x000000008787dde8                _u_boot_list_2_cmd_2_itest
 .u_boot_list_2_cmd_2_load
                0x000000008787de04       0x1c cmd/built-in.o
                0x000000008787de04                _u_boot_list_2_cmd_2_load
 .u_boot_list_2_cmd_2_loadb
                0x000000008787de20       0x1c cmd/built-in.o
                0x000000008787de20                _u_boot_list_2_cmd_2_loadb
 .u_boot_list_2_cmd_2_loads
                0x000000008787de3c       0x1c cmd/built-in.o
                0x000000008787de3c                _u_boot_list_2_cmd_2_loads
 .u_boot_list_2_cmd_2_loadx
                0x000000008787de58       0x1c cmd/built-in.o
                0x000000008787de58                _u_boot_list_2_cmd_2_loadx
 .u_boot_list_2_cmd_2_loady
                0x000000008787de74       0x1c cmd/built-in.o
                0x000000008787de74                _u_boot_list_2_cmd_2_loady
 .u_boot_list_2_cmd_2_loop
                0x000000008787de90       0x1c cmd/built-in.o
                0x000000008787de90                _u_boot_list_2_cmd_2_loop
 .u_boot_list_2_cmd_2_ls
                0x000000008787deac       0x1c cmd/built-in.o
                0x000000008787deac                _u_boot_list_2_cmd_2_ls
 .u_boot_list_2_cmd_2_md
                0x000000008787dec8       0x1c cmd/built-in.o
                0x000000008787dec8                _u_boot_list_2_cmd_2_md
 .u_boot_list_2_cmd_2_mdio
                0x000000008787dee4       0x1c cmd/built-in.o
                0x000000008787dee4                _u_boot_list_2_cmd_2_mdio
 .u_boot_list_2_cmd_2_mii
                0x000000008787df00       0x1c cmd/built-in.o
                0x000000008787df00                _u_boot_list_2_cmd_2_mii
 .u_boot_list_2_cmd_2_mm
                0x000000008787df1c       0x1c cmd/built-in.o
                0x000000008787df1c                _u_boot_list_2_cmd_2_mm
 .u_boot_list_2_cmd_2_mmc
                0x000000008787df38       0x1c cmd/built-in.o
                0x000000008787df38                _u_boot_list_2_cmd_2_mmc
 .u_boot_list_2_cmd_2_mmcinfo
                0x000000008787df54       0x1c cmd/built-in.o
                0x000000008787df54                _u_boot_list_2_cmd_2_mmcinfo
 .u_boot_list_2_cmd_2_mtest
                0x000000008787df70       0x1c cmd/built-in.o
                0x000000008787df70                _u_boot_list_2_cmd_2_mtest
 .u_boot_list_2_cmd_2_mw
                0x000000008787df8c       0x1c cmd/built-in.o
                0x000000008787df8c                _u_boot_list_2_cmd_2_mw
 .u_boot_list_2_cmd_2_nfs
                0x000000008787dfa8       0x1c cmd/built-in.o
                0x000000008787dfa8                _u_boot_list_2_cmd_2_nfs
 .u_boot_list_2_cmd_2_nm
                0x000000008787dfc4       0x1c cmd/built-in.o
                0x000000008787dfc4                _u_boot_list_2_cmd_2_nm
 .u_boot_list_2_cmd_2_ping
                0x000000008787dfe0       0x1c cmd/built-in.o
                0x000000008787dfe0                _u_boot_list_2_cmd_2_ping
 .u_boot_list_2_cmd_2_pmic
                0x000000008787dffc       0x1c drivers/power/built-in.o
                0x000000008787dffc                _u_boot_list_2_cmd_2_pmic
 .u_boot_list_2_cmd_2_printenv
                0x000000008787e018       0x1c cmd/built-in.o
                0x000000008787e018                _u_boot_list_2_cmd_2_printenv
 .u_boot_list_2_cmd_2_question_mark
                0x000000008787e034       0x1c cmd/built-in.o
                0x000000008787e034                _u_boot_list_2_cmd_2_question_mark
 .u_boot_list_2_cmd_2_reset
                0x000000008787e050       0x1c cmd/built-in.o
                0x000000008787e050                _u_boot_list_2_cmd_2_reset
 .u_boot_list_2_cmd_2_run
                0x000000008787e06c       0x1c cmd/built-in.o
                0x000000008787e06c                _u_boot_list_2_cmd_2_run
 .u_boot_list_2_cmd_2_save
                0x000000008787e088       0x1c cmd/built-in.o
                0x000000008787e088                _u_boot_list_2_cmd_2_save
 .u_boot_list_2_cmd_2_saveenv
                0x000000008787e0a4       0x1c cmd/built-in.o
                0x000000008787e0a4                _u_boot_list_2_cmd_2_saveenv
 .u_boot_list_2_cmd_2_setenv
                0x000000008787e0c0       0x1c cmd/built-in.o
                0x000000008787e0c0                _u_boot_list_2_cmd_2_setenv
 .u_boot_list_2_cmd_2_setexpr
                0x000000008787e0dc       0x1c cmd/built-in.o
                0x000000008787e0dc                _u_boot_list_2_cmd_2_setexpr
 .u_boot_list_2_cmd_2_showvar
                0x000000008787e0f8       0x1c common/built-in.o
                0x000000008787e0f8                _u_boot_list_2_cmd_2_showvar
 .u_boot_list_2_cmd_2_size
                0x000000008787e114       0x1c cmd/built-in.o
                0x000000008787e114                _u_boot_list_2_cmd_2_size
 .u_boot_list_2_cmd_2_sleep
                0x000000008787e130       0x1c cmd/built-in.o
                0x000000008787e130                _u_boot_list_2_cmd_2_sleep
 .u_boot_list_2_cmd_2_source
                0x000000008787e14c       0x1c cmd/built-in.o
                0x000000008787e14c                _u_boot_list_2_cmd_2_source
 .u_boot_list_2_cmd_2_test
                0x000000008787e168       0x1c cmd/built-in.o
                0x000000008787e168                _u_boot_list_2_cmd_2_test
 .u_boot_list_2_cmd_2_tftpboot
                0x000000008787e184       0x1c cmd/built-in.o
                0x000000008787e184                _u_boot_list_2_cmd_2_tftpboot
 .u_boot_list_2_cmd_2_true
                0x000000008787e1a0       0x1c cmd/built-in.o
                0x000000008787e1a0                _u_boot_list_2_cmd_2_true
 .u_boot_list_2_cmd_2_ums
                0x000000008787e1bc       0x1c cmd/built-in.o
                0x000000008787e1bc                _u_boot_list_2_cmd_2_ums
 .u_boot_list_2_cmd_2_usb
                0x000000008787e1d8       0x1c cmd/built-in.o
                0x000000008787e1d8                _u_boot_list_2_cmd_2_usb
 .u_boot_list_2_cmd_2_usbboot
                0x000000008787e1f4       0x1c cmd/built-in.o
                0x000000008787e1f4                _u_boot_list_2_cmd_2_usbboot
 .u_boot_list_2_cmd_2_version
                0x000000008787e210       0x1c cmd/built-in.o
                0x000000008787e210                _u_boot_list_2_cmd_2_version
 .u_boot_list_2_cmd_3
                0x000000008787e22c        0x0 cmd/built-in.o
 .u_boot_list_2_cmd_3
                0x000000008787e22c        0x0 common/built-in.o
 .u_boot_list_2_driver_1
                0x000000008787e22c        0x0 drivers/built-in.o
 .u_boot_list_2_driver_1
                0x000000008787e22c        0x0 lib/built-in.o
 .u_boot_list_2_driver_2_imx_thermal
                0x000000008787e22c       0x44 drivers/built-in.o
                0x000000008787e22c                _u_boot_list_2_driver_2_imx_thermal
 .u_boot_list_2_driver_2_root_driver
                0x000000008787e270       0x44 drivers/built-in.o
                0x000000008787e270                _u_boot_list_2_driver_2_root_driver
 .u_boot_list_2_driver_3
                0x000000008787e2b4        0x0 drivers/built-in.o
 .u_boot_list_2_driver_3
                0x000000008787e2b4        0x0 lib/built-in.o
 .u_boot_list_2_driver_info_1
                0x000000008787e2b4        0x0 drivers/built-in.o
 .u_boot_list_2_driver_info_2_imx7_thermal
                0x000000008787e2b4        0x8 arch/arm/mach-imx/built-in.o
                0x000000008787e2b4                _u_boot_list_2_driver_info_2_imx7_thermal
 .u_boot_list_2_driver_info_3
                0x000000008787e2bc        0x0 drivers/built-in.o
 .u_boot_list_2_env_clbk_1
                0x000000008787e2bc        0x0 env/built-in.o
 .u_boot_list_2_env_clbk_2_baudrate
                0x000000008787e2bc        0x8 drivers/serial/built-in.o
                0x000000008787e2bc                _u_boot_list_2_env_clbk_2_baudrate
 .u_boot_list_2_env_clbk_2_bootfile
                0x000000008787e2c4        0x8 net/built-in.o
                0x000000008787e2c4                _u_boot_list_2_env_clbk_2_bootfile
 .u_boot_list_2_env_clbk_2_callbacks
                0x000000008787e2cc        0x8 env/built-in.o
                0x000000008787e2cc                _u_boot_list_2_env_clbk_2_callbacks
 .u_boot_list_2_env_clbk_2_console
                0x000000008787e2d4        0x8 common/built-in.o
                0x000000008787e2d4                _u_boot_list_2_env_clbk_2_console
 .u_boot_list_2_env_clbk_2_ethaddr
                0x000000008787e2dc        0x8 net/built-in.o
                0x000000008787e2dc                _u_boot_list_2_env_clbk_2_ethaddr
 .u_boot_list_2_env_clbk_2_flags
                0x000000008787e2e4        0x8 env/built-in.o
                0x000000008787e2e4                _u_boot_list_2_env_clbk_2_flags
 .u_boot_list_2_env_clbk_2_gatewayip
                0x000000008787e2ec        0x8 net/built-in.o
                0x000000008787e2ec                _u_boot_list_2_env_clbk_2_gatewayip
 .u_boot_list_2_env_clbk_2_ipaddr
                0x000000008787e2f4        0x8 net/built-in.o
                0x000000008787e2f4                _u_boot_list_2_env_clbk_2_ipaddr
 .u_boot_list_2_env_clbk_2_loadaddr
                0x000000008787e2fc        0x8 common/built-in.o
                0x000000008787e2fc                _u_boot_list_2_env_clbk_2_loadaddr
 .u_boot_list_2_env_clbk_2_netmask
                0x000000008787e304        0x8 net/built-in.o
                0x000000008787e304                _u_boot_list_2_env_clbk_2_netmask
 .u_boot_list_2_env_clbk_2_nvlan
                0x000000008787e30c        0x8 net/built-in.o
                0x000000008787e30c                _u_boot_list_2_env_clbk_2_nvlan
 .u_boot_list_2_env_clbk_2_serialno
                0x000000008787e314        0x8 drivers/usb/gadget/built-in.o
                0x000000008787e314                _u_boot_list_2_env_clbk_2_serialno
 .u_boot_list_2_env_clbk_2_serverip
                0x000000008787e31c        0x8 net/built-in.o
                0x000000008787e31c                _u_boot_list_2_env_clbk_2_serverip
 .u_boot_list_2_env_clbk_2_vlan
                0x000000008787e324        0x8 net/built-in.o
                0x000000008787e324                _u_boot_list_2_env_clbk_2_vlan
 .u_boot_list_2_env_clbk_3
                0x000000008787e32c        0x0 env/built-in.o
 .u_boot_list_2_env_driver_1
                0x000000008787e32c        0x0 env/built-in.o
 .u_boot_list_2_env_driver_2_mmc
                0x000000008787e32c       0x14 env/built-in.o
                0x000000008787e32c                _u_boot_list_2_env_driver_2_mmc
 .u_boot_list_2_env_driver_3
                0x000000008787e340        0x0 env/built-in.o
 .u_boot_list_2_fit_loadable_1
                0x000000008787e340        0x0 common/built-in.o
 .u_boot_list_2_fit_loadable_3
                0x000000008787e340        0x0 common/built-in.o
 .u_boot_list_2_g_dnl_bind_callbacks_1
                0x000000008787e340        0x0 drivers/usb/gadget/built-in.o
 .u_boot_list_2_g_dnl_bind_callbacks_2___usb_function_name_usb_dnl_fastboot
                0x000000008787e340        0x8 drivers/usb/gadget/built-in.o
                0x000000008787e340                _u_boot_list_2_g_dnl_bind_callbacks_2___usb_function_name_usb_dnl_fastboot
 .u_boot_list_2_g_dnl_bind_callbacks_2___usb_function_name_usb_dnl_ums
                0x000000008787e348        0x8 drivers/usb/gadget/built-in.o
                0x000000008787e348                _u_boot_list_2_g_dnl_bind_callbacks_2___usb_function_name_usb_dnl_ums
 .u_boot_list_2_i2c_1
                0x000000008787e350        0x0 cmd/built-in.o
 .u_boot_list_2_i2c_1
                0x000000008787e350        0x0 drivers/i2c/built-in.o
 .u_boot_list_2_i2c_2_mxc0
                0x000000008787e350       0x2c drivers/i2c/built-in.o
                0x000000008787e350                _u_boot_list_2_i2c_2_mxc0
 .u_boot_list_2_i2c_2_mxc1
                0x000000008787e37c       0x2c drivers/i2c/built-in.o
                0x000000008787e37c                _u_boot_list_2_i2c_2_mxc1
 .u_boot_list_2_i2c_2_mxc2
                0x000000008787e3a8       0x2c drivers/i2c/built-in.o
                0x000000008787e3a8                _u_boot_list_2_i2c_2_mxc2
 .u_boot_list_2_i2c_2_mxc3
                0x000000008787e3d4       0x2c drivers/i2c/built-in.o
                0x000000008787e3d4                _u_boot_list_2_i2c_2_mxc3
 .u_boot_list_2_i2c_3
                0x000000008787e400        0x0 cmd/built-in.o
 .u_boot_list_2_i2c_3
                0x000000008787e400        0x0 drivers/i2c/built-in.o
 .u_boot_list_2_part_driver_1
                0x000000008787e400        0x0 disk/built-in.o
 .u_boot_list_2_part_driver_2_a_efi
                0x000000008787e400       0x18 disk/built-in.o
                0x000000008787e400                _u_boot_list_2_part_driver_2_a_efi
 .u_boot_list_2_part_driver_2_dos
                0x000000008787e418       0x18 disk/built-in.o
                0x000000008787e418                _u_boot_list_2_part_driver_2_dos
 .u_boot_list_2_part_driver_3
                0x000000008787e430        0x0 disk/built-in.o
 .u_boot_list_2_uclass_1
                0x000000008787e430        0x0 drivers/built-in.o
 .u_boot_list_2_uclass_2_efi
                0x000000008787e430       0x48 lib/built-in.o
                0x000000008787e430                _u_boot_list_2_uclass_2_efi
 .u_boot_list_2_uclass_2_root
                0x000000008787e478       0x48 drivers/built-in.o
                0x000000008787e478                _u_boot_list_2_uclass_2_root
 .u_boot_list_2_uclass_2_thermal
                0x000000008787e4c0       0x48 drivers/built-in.o
                0x000000008787e4c0                _u_boot_list_2_uclass_2_thermal
 .u_boot_list_2_uclass_3
                0x000000008787e508        0x0 drivers/built-in.o
                0x000000008787e508                . = ALIGN (0x4)

.__efi_runtime_start
                0x000000008787e508        0x0
 *(.__efi_runtime_start)
 .__efi_runtime_start
                0x000000008787e508        0x0 arch/arm/lib/built-in.o

.efi_runtime    0x000000008787e508      0x118
 *(efi_runtime_text)
 efi_runtime_text
                0x000000008787e508       0x3c lib/built-in.o
                0x000000008787e508                efi_reset_system
                0x000000008787e50c                efi_get_time
                0x000000008787e52c                efi_update_capsule
                0x000000008787e534                efi_query_capsule_caps
                0x000000008787e53c                efi_query_variable_info
 *(efi_runtime_data)
 *fill*         0x000000008787e544        0x4 
 efi_runtime_data
                0x000000008787e548       0xd8 lib/built-in.o
                0x000000008787e548                systab
                0x000000008787e5d0                efi_runtime_services

.__efi_runtime_stop
                0x000000008787e620        0x0
 *(.__efi_runtime_stop)
 .__efi_runtime_stop
                0x000000008787e620        0x0 arch/arm/lib/built-in.o

.efi_runtime_rel_start
                0x000000008787e620        0x0
 *(.__efi_runtime_rel_start)
 .__efi_runtime_rel_start
                0x000000008787e620        0x0 arch/arm/lib/built-in.o

.efi_runtime_rel
                0x000000008787e620       0xa8
 *(.relefi_runtime_text)
 *(.relefi_runtime_data)
 .relefi_runtime_data
                0x000000008787e620       0xa8 arch/arm/cpu/armv7/start.o

.efi_runtime_rel_stop
                0x000000008787e6c8        0x0
 *(.__efi_runtime_rel_stop)
 .__efi_runtime_rel_stop
                0x000000008787e6c8        0x0 arch/arm/lib/built-in.o
                0x000000008787e6c8                . = ALIGN (0x4)

.image_copy_end
                0x000000008787e6c8        0x0
 *(.__image_copy_end)
 .__image_copy_end
                0x000000008787e6c8        0x0 arch/arm/lib/built-in.o

.rel_dyn_start  0x000000008787e6c8        0x0
 *(.__rel_dyn_start)
 .__rel_dyn_start
                0x000000008787e6c8        0x0 arch/arm/lib/built-in.o

.rel.dyn        0x000000008787e6c8     0xb620
 *(.rel*)
 .rel.got       0x000000008787e6c8        0x0 arch/arm/cpu/armv7/start.o
 .rel.plt       0x000000008787e6c8        0x0 arch/arm/cpu/armv7/start.o
 .rel.bss       0x000000008787e6c8        0x0 arch/arm/cpu/armv7/start.o
 .rel.data.rel.ro
                0x000000008787e6c8        0x0 arch/arm/cpu/armv7/start.o
 .rel.iplt      0x000000008787e6c8        0x0 arch/arm/cpu/armv7/start.o
 .rel.text      0x000000008787e6c8       0x20 arch/arm/cpu/armv7/start.o
 .rel.text.get_gicd_base_address
                0x000000008787e6e8        0x8 arch/arm/cpu/armv7/start.o
 .rel.text.armv7_init_nonsec
                0x000000008787e6f0       0x20 arch/arm/cpu/armv7/start.o
 .rel.vectors   0x000000008787e710       0x38 arch/arm/cpu/armv7/start.o
 .rel.text.relocate_vectors
                0x000000008787e748       0x20 arch/arm/cpu/armv7/start.o
 .rel.text.boot_prep_linux
                0x000000008787e768       0x18 arch/arm/cpu/armv7/start.o
 .rel.text.armv7_boot_nonsec
                0x000000008787e780       0x18 arch/arm/cpu/armv7/start.o
 .rel.text.boot_jump_linux
                0x000000008787e798       0x30 arch/arm/cpu/armv7/start.o
 .rel.text.boot_prep_vxworks
                0x000000008787e7c8       0x10 arch/arm/cpu/armv7/start.o
 .rel.text.interrupt_init
                0x000000008787e7d8        0x8 arch/arm/cpu/armv7/start.o
 .rel.text.bad_mode
                0x000000008787e7e0        0x8 arch/arm/cpu/armv7/start.o
 .rel.text.show_regs
                0x000000008787e7e8       0x60 arch/arm/cpu/armv7/start.o
 .rel.text.do_undefined_instruction
                0x000000008787e848        0x8 arch/arm/cpu/armv7/start.o
 .rel.text.do_software_interrupt
                0x000000008787e850        0x8 arch/arm/cpu/armv7/start.o
 .rel.text.do_prefetch_abort
                0x000000008787e858        0x8 arch/arm/cpu/armv7/start.o
 .rel.text.do_data_abort
                0x000000008787e860        0x8 arch/arm/cpu/armv7/start.o
 .rel.text.do_not_used
                0x000000008787e868        0x8 arch/arm/cpu/armv7/start.o
 .rel.text.do_fiq
                0x000000008787e870        0x8 arch/arm/cpu/armv7/start.o
 .rel.text.do_irq
                0x000000008787e878        0x8 arch/arm/cpu/armv7/start.o
 .rel.text.do_reset
                0x000000008787e880        0x8 arch/arm/cpu/armv7/start.o
 .rel.text.check_cache_range
                0x000000008787e888        0x8 arch/arm/cpu/armv7/start.o
 .rel.text.fdt_psci
                0x000000008787e890       0x68 arch/arm/cpu/armv7/start.o
 .rel.rodata    0x000000008787e8f8      0x118 arch/arm/cpu/armv7/start.o
 .rel.text.imx_iomux_v3_setup_pad
                0x000000008787ea10        0x8 arch/arm/cpu/armv7/start.o
 .rel.text.get_imx_type
                0x000000008787ea18       0x10 arch/arm/cpu/armv7/start.o
 .rel.text.get_cpu_speed_grade_hz
                0x000000008787ea28       0x28 arch/arm/cpu/armv7/start.o
 .rel.text.print_cpuinfo
                0x000000008787ea50       0xb8 arch/arm/cpu/armv7/start.o
 .rel.text.get_boot_device
                0x000000008787eb08       0x78 arch/arm/cpu/armv7/start.o
 .rel.text.force_idle_bus
                0x000000008787eb80       0x18 arch/arm/cpu/armv7/start.o
 .rel.text.setup_i2c
                0x000000008787eb98       0x18 arch/arm/cpu/armv7/start.o
 .rel.text.mmc_get_env_dev
                0x000000008787ebb0        0x8 arch/arm/cpu/armv7/start.o
 .rel.text.do_bootaux
                0x000000008787ebb8       0x10 arch/arm/cpu/armv7/start.o
 .rel.text.create_usage
                0x000000008787ebc8       0x10 arch/arm/cpu/armv7/start.o
 .rel.text.do_boot_mode
                0x000000008787ebd8       0x10 arch/arm/cpu/armv7/start.o
 .rel.text.add_board_boot_modes
                0x000000008787ebe8       0x18 arch/arm/cpu/armv7/start.o
 .rel.text.ft_system_setup
                0x000000008787ec00       0x20 arch/arm/cpu/armv7/start.o
 .rel.text.arch_cpu_init
                0x000000008787ec20        0x8 arch/arm/cpu/armv7/start.o
 .rel.text.enable_pll_enet
                0x000000008787ec28        0x8 arch/arm/cpu/armv7/start.o
 .rel.text.decode_pll.constprop.3
                0x000000008787ec30       0x40 arch/arm/cpu/armv7/start.o
 .rel.text.mxc_get_pll_ddr_derive
                0x000000008787ec70       0x10 arch/arm/cpu/armv7/start.o
 .rel.text.get_root_clk
                0x000000008787ec80      0x1c0 arch/arm/cpu/armv7/start.o
 .rel.text.mxc_get_clock
                0x000000008787ee40       0x68 arch/arm/cpu/armv7/start.o
 .rel.text.do_mx7_showclocks
                0x000000008787eea8       0x60 arch/arm/cpu/armv7/start.o
 .rel.text.mxs_set_lcdclk
                0x000000008787ef08       0x38 arch/arm/cpu/armv7/start.o
 .rel.text.clock_init
                0x000000008787ef40        0x8 arch/arm/cpu/armv7/start.o
 .rel.text.select
                0x000000008787ef48        0x8 arch/arm/cpu/armv7/start.o
 .rel.text.clock_set_src
                0x000000008787ef50       0x10 arch/arm/cpu/armv7/start.o
 .rel.text.clock_get_src
                0x000000008787ef60       0x10 arch/arm/cpu/armv7/start.o
 .rel.text.clock_get_prediv
                0x000000008787ef70       0x10 arch/arm/cpu/armv7/start.o
 .rel.text.clock_get_postdiv
                0x000000008787ef80        0x8 arch/arm/cpu/armv7/start.o
 .rel.text.clock_get_autopostdiv
                0x000000008787ef88       0x10 arch/arm/cpu/armv7/start.o
 .rel.text.clock_set_target_val
                0x000000008787ef98        0x8 arch/arm/cpu/armv7/start.o
 .rel.text.clock_root_enabled
                0x000000008787efa0        0x8 arch/arm/cpu/armv7/start.o
 .rel.text.clock_enable
                0x000000008787efa8        0x8 arch/arm/cpu/armv7/start.o
 .rel.rodata.CSWTCH.14
                0x000000008787efb0      0x1d0 arch/arm/cpu/armv7/start.o
 .rel.rodata.soc_boot_modes
                0x000000008787f180       0x60 arch/arm/cpu/armv7/start.o
 .rel.u_boot_list_2_cmd_2_bootaux
                0x000000008787f1e0       0x20 arch/arm/cpu/armv7/start.o
 .rel.u_boot_list_2_cmd_2_bmode
                0x000000008787f200       0x18 arch/arm/cpu/armv7/start.o
 .rel.u_boot_list_2_driver_info_2_imx7_thermal
                0x000000008787f218       0x10 arch/arm/cpu/armv7/start.o
 .rel.u_boot_list_2_cmd_2_clocks
                0x000000008787f228       0x20 arch/arm/cpu/armv7/start.o
 .rel.text.do_enable_parallel_lcd
                0x000000008787f248       0x10 arch/arm/cpu/armv7/start.o
 .rel.text.dram_init
                0x000000008787f258        0x8 arch/arm/cpu/armv7/start.o
 .rel.text.board_video_skip
                0x000000008787f260       0x38 arch/arm/cpu/armv7/start.o
 .rel.text.board_mmc_init
                0x000000008787f298       0x20 arch/arm/cpu/armv7/start.o
 .rel.text.check_mmc_autodetect
                0x000000008787f2b8       0x10 arch/arm/cpu/armv7/start.o
 .rel.text.board_late_mmc_init
                0x000000008787f2c8       0x20 arch/arm/cpu/armv7/start.o
 .rel.text.board_eth_init
                0x000000008787f2e8       0x18 arch/arm/cpu/armv7/start.o
 .rel.text.board_early_init_f
                0x000000008787f300       0x20 arch/arm/cpu/armv7/start.o
 .rel.text.board_init
                0x000000008787f320       0x10 arch/arm/cpu/armv7/start.o
 .rel.text.power_init_board
                0x000000008787f330       0x10 arch/arm/cpu/armv7/start.o
 .rel.text.board_late_init
                0x000000008787f340       0x10 arch/arm/cpu/armv7/start.o
 .rel.text.checkboard
                0x000000008787f350       0x10 arch/arm/cpu/armv7/start.o
 .rel.text.board_ehci_hcd_init
                0x000000008787f360       0x18 arch/arm/cpu/armv7/start.o
 .rel.rodata.board_boot_modes
                0x000000008787f378       0x10 arch/arm/cpu/armv7/start.o
 .rel.rodata.displays
                0x000000008787f388       0x10 arch/arm/cpu/armv7/start.o
 .rel.text.do_go
                0x000000008787f398       0x10 arch/arm/cpu/armv7/start.o
 .rel.text.do_bootm
                0x000000008787f3a8       0x18 arch/arm/cpu/armv7/start.o
 .rel.text.do_bootd
                0x000000008787f3c0        0x8 arch/arm/cpu/armv7/start.o
 .rel.text.image_info
                0x000000008787f3c8       0x58 arch/arm/cpu/armv7/start.o
 .rel.text.do_iminfo
                0x000000008787f420        0x8 arch/arm/cpu/armv7/start.o
 .rel.text.bootm_maybe_autostart
                0x000000008787f428       0x20 arch/arm/cpu/armv7/start.o
 .rel.text.do_help
                0x000000008787f448       0x10 arch/arm/cpu/armv7/start.o
 .rel.text.do_version
                0x000000008787f458       0x10 arch/arm/cpu/armv7/start.o
 .rel.text.blk_common_cmd
                0x000000008787f468       0x90 arch/arm/cpu/armv7/start.o
 .rel.text.source
                0x000000008787f4f8       0x68 arch/arm/cpu/armv7/start.o
 .rel.text.do_source
                0x000000008787f560       0x10 arch/arm/cpu/armv7/start.o
 .rel.text.print_num
                0x000000008787f570        0x8 arch/arm/cpu/armv7/start.o
 .rel.text.do_bdinfo
                0x000000008787f578       0xb0 arch/arm/cpu/armv7/start.o
 .rel.text.do_bmp
                0x000000008787f628        0x8 arch/arm/cpu/armv7/start.o
 .rel.text.do_bmp_info
                0x000000008787f630       0x28 arch/arm/cpu/armv7/start.o
 .rel.text.bmp_display
                0x000000008787f658        0x8 arch/arm/cpu/armv7/start.o
 .rel.text.do_bmp_display
                0x000000008787f660        0x8 arch/arm/cpu/armv7/start.o
 .rel.text.efi_init_obj_list
                0x000000008787f668        0x8 arch/arm/cpu/armv7/start.o
 .rel.text.do_bootefi_exec
                0x000000008787f670       0x58 arch/arm/cpu/armv7/start.o
 .rel.text.do_bootefi
                0x000000008787f6c8       0x38 arch/arm/cpu/armv7/start.o
 .rel.text.efi_set_bootdev
                0x000000008787f700       0x28 arch/arm/cpu/armv7/start.o
 .rel.text.do_bootz
                0x000000008787f728       0x18 arch/arm/cpu/armv7/start.o
 .rel.text.parse_argv
                0x000000008787f740       0x18 arch/arm/cpu/armv7/start.o
 .rel.text.do_icache
                0x000000008787f758       0x18 arch/arm/cpu/armv7/start.o
 .rel.text.do_dcache
                0x000000008787f770       0x18 arch/arm/cpu/armv7/start.o
 .rel.text.do_coninfo
                0x000000008787f788       0x28 arch/arm/cpu/armv7/start.o
 .rel.text.do_echo
                0x000000008787f7b0        0x8 arch/arm/cpu/armv7/start.o
 .rel.text.valid_elf_image
                0x000000008787f7b8       0x10 arch/arm/cpu/armv7/start.o
 .rel.text.do_bootelf
                0x000000008787f7c8       0x28 arch/arm/cpu/armv7/start.o
 .rel.text.do_bootvx
                0x000000008787f7f0       0xe0 arch/arm/cpu/armv7/start.o
 .rel.text.do_fat_fsinfo
                0x000000008787f8d0       0x10 arch/arm/cpu/armv7/start.o
 .rel.text.fdt_valid
                0x000000008787f8e0       0x28 arch/arm/cpu/armv7/start.o
 .rel.text.is_printable_string
                0x000000008787f908        0x8 arch/arm/cpu/armv7/start.o
 .rel.text.print_data
                0x000000008787f910       0x58 arch/arm/cpu/armv7/start.o
 .rel.text.set_working_fdt_addr
                0x000000008787f968       0x10 arch/arm/cpu/armv7/start.o
 .rel.text.do_fdt
                0x000000008787f978      0x270 arch/arm/cpu/armv7/start.o
 .rel.text.do_load_wrapper
                0x000000008787fbe8        0x8 arch/arm/cpu/armv7/start.o
 .rel.text.do_fuse
                0x000000008787fbf0       0x70 arch/arm/cpu/armv7/start.o
 .rel.text.do_gpio
                0x000000008787fc60       0x40 arch/arm/cpu/armv7/start.o
 .rel.text.do_i2c
                0x000000008787fca0        0x8 arch/arm/cpu/armv7/start.o
 .rel.text.do_i2c_bus_speed
                0x000000008787fca8       0x18 arch/arm/cpu/armv7/start.o
 .rel.text.do_i2c_probe
                0x000000008787fcc0       0x10 arch/arm/cpu/armv7/start.o
 .rel.text.do_i2c_bus_num
                0x000000008787fcd0       0x30 arch/arm/cpu/armv7/start.o
 .rel.text.do_i2c_show_bus
                0x000000008787fd00       0x28 arch/arm/cpu/armv7/start.o
 .rel.text.do_i2c_crc
                0x000000008787fd28       0x20 arch/arm/cpu/armv7/start.o
 .rel.text.mod_i2c_mem.isra.3
                0x000000008787fd48       0x60 arch/arm/cpu/armv7/start.o
 .rel.text.do_i2c_md
                0x000000008787fda8       0x58 arch/arm/cpu/armv7/start.o
 .rel.text.do_i2c_read
                0x000000008787fe00       0x10 arch/arm/cpu/armv7/start.o
 .rel.text.do_i2c_mw
                0x000000008787fe10       0x10 arch/arm/cpu/armv7/start.o
 .rel.text.do_i2c_write
                0x000000008787fe20       0x18 arch/arm/cpu/armv7/start.o
 .rel.text.do_i2c_loop
                0x000000008787fe38       0x10 arch/arm/cpu/armv7/start.o
 .rel.text.binary_test
                0x000000008787fe48       0x70 arch/arm/cpu/armv7/start.o
 .rel.text.do_itest
                0x000000008787feb8       0x40 arch/arm/cpu/armv7/start.o
 .rel.text.bin_data_init
                0x000000008787fef8       0x18 arch/arm/cpu/armv7/start.o
 .rel.text.k_data_save
                0x000000008787ff10       0x30 arch/arm/cpu/armv7/start.o
 .rel.text.k_data_restore
                0x000000008787ff40       0x30 arch/arm/cpu/armv7/start.o
 .rel.text.load_serial_ymodem
                0x000000008787ff70       0x20 arch/arm/cpu/armv7/start.o
 .rel.text.bin_data_char
                0x000000008787ff90       0x10 arch/arm/cpu/armv7/start.o
 .rel.text.chk1.constprop.2
                0x000000008787ffa0        0x8 arch/arm/cpu/armv7/start.o
 .rel.text.s1_sendpacket.constprop.3
                0x000000008787ffa8       0x18 arch/arm/cpu/armv7/start.o
 .rel.text.load_serial
                0x000000008787ffc0       0x68 arch/arm/cpu/armv7/start.o
 .rel.text.do_load_serial
                0x0000000087880028       0x30 arch/arm/cpu/armv7/start.o
 .rel.text.do_load_serial_bin
                0x0000000087880058       0xe8 arch/arm/cpu/armv7/start.o
 .rel.text.do_mem_mw
                0x0000000087880140        0x8 arch/arm/cpu/armv7/start.o
 .rel.text.do_mem_md
                0x0000000087880148       0x20 arch/arm/cpu/armv7/start.o
 .rel.text.do_mem_cmp
                0x0000000087880168       0x38 arch/arm/cpu/armv7/start.o
 .rel.text.do_mem_base
                0x00000000878801a0       0x10 arch/arm/cpu/armv7/start.o
 .rel.text.do_mem_cp
                0x00000000878801b0       0x10 arch/arm/cpu/armv7/start.o
 .rel.text.do_mem_crc
                0x00000000878801c0        0x8 arch/arm/cpu/armv7/start.o
 .rel.text.do_mem_mtest
                0x00000000878801c8       0x40 arch/arm/cpu/armv7/start.o
 .rel.text.mod_mem.isra.0
                0x0000000087880208       0x48 arch/arm/cpu/armv7/start.o
 .rel.text.do_mii
                0x0000000087880250      0x160 arch/arm/cpu/armv7/start.o
 .rel.text.do_mdio
                0x00000000878803b0       0x70 arch/arm/cpu/armv7/start.o
 .rel.text.do_mmcops
                0x0000000087880420       0x18 arch/arm/cpu/armv7/start.o
 .rel.text.init_mmc_device
                0x0000000087880438        0x8 arch/arm/cpu/armv7/start.o
 .rel.text.do_mmc_rescan
                0x0000000087880440        0x8 arch/arm/cpu/armv7/start.o
 .rel.text.do_mmc_rst_func
                0x0000000087880448       0x10 arch/arm/cpu/armv7/start.o
 .rel.text.do_mmc_partconf
                0x0000000087880458       0x18 arch/arm/cpu/armv7/start.o
 .rel.text.do_mmc_boot_resize
                0x0000000087880470       0x20 arch/arm/cpu/armv7/start.o
 .rel.text.do_mmc_bootbus
                0x0000000087880490        0x8 arch/arm/cpu/armv7/start.o
 .rel.text.do_mmc_hwpartition
                0x0000000087880498       0xb0 arch/arm/cpu/armv7/start.o
 .rel.text.do_mmc_dev
                0x0000000087880548       0x38 arch/arm/cpu/armv7/start.o
 .rel.text.do_mmc_read
                0x0000000087880580       0x28 arch/arm/cpu/armv7/start.o
 .rel.text.do_mmc_erase
                0x00000000878805a8       0x30 arch/arm/cpu/armv7/start.o
 .rel.text.do_mmc_write
                0x00000000878805d8       0x30 arch/arm/cpu/armv7/start.o
 .rel.text.do_mmcinfo
                0x0000000087880608      0x110 arch/arm/cpu/armv7/start.o
 .rel.text.do_mmc_setdsr
                0x0000000087880718       0x28 arch/arm/cpu/armv7/start.o
 .rel.text.do_mmc_part
                0x0000000087880740       0x10 arch/arm/cpu/armv7/start.o
 .rel.text.netboot_common
                0x0000000087880750       0x98 arch/arm/cpu/armv7/start.o
 .rel.text.do_ping
                0x00000000878807e8       0x18 arch/arm/cpu/armv7/start.o
 .rel.text.substitute
                0x0000000087880800        0x8 arch/arm/cpu/armv7/start.o
 .rel.text.regex_sub.part.1
                0x0000000087880808       0x38 arch/arm/cpu/armv7/start.o
 .rel.text.do_setexpr
                0x0000000087880840       0x18 arch/arm/cpu/armv7/start.o
 .rel.text.do_test
                0x0000000087880858       0x70 arch/arm/cpu/armv7/start.o
 .rel.text.usb_get_class_desc
                0x00000000878808c8       0x50 arch/arm/cpu/armv7/start.o
 .rel.text.usb_show_tree_graph
                0x0000000087880918       0x48 arch/arm/cpu/armv7/start.o
 .rel.text.usb_display_class_sub
                0x0000000087880960       0xc8 arch/arm/cpu/armv7/start.o
 .rel.text.usb_display_desc
                0x0000000087880a28       0x38 arch/arm/cpu/armv7/start.o
 .rel.text.usb_display_string
                0x0000000087880a60        0x8 arch/arm/cpu/armv7/start.o
 .rel.text.usb_display_config
                0x0000000087880a68       0xa8 arch/arm/cpu/armv7/start.o
 .rel.text.do_usbboot
                0x0000000087880b10        0x8 arch/arm/cpu/armv7/start.o
 .rel.text.do_usb_start
                0x0000000087880b18        0x8 arch/arm/cpu/armv7/start.o
 .rel.text.do_usb
                0x0000000087880b20       0xe8 arch/arm/cpu/armv7/start.o
 .rel.text.common_diskboot
                0x0000000087880c08       0x38 arch/arm/cpu/armv7/start.o
 .rel.text.do_fastboot
                0x0000000087880c40       0x18 arch/arm/cpu/armv7/start.o
 .rel.text.ums_fini
                0x0000000087880c58       0x10 arch/arm/cpu/armv7/start.o
 .rel.text.do_usb_mass_storage
                0x0000000087880c68       0x98 arch/arm/cpu/armv7/start.o
 .rel.text.do_imgextract
                0x0000000087880d00       0xc8 arch/arm/cpu/armv7/start.o
 .rel.text.do_env_delete
                0x0000000087880dc8       0x10 arch/arm/cpu/armv7/start.o
 .rel.text.do_env_exists
                0x0000000087880dd8        0x8 arch/arm/cpu/armv7/start.o
 .rel.text.do_env
                0x0000000087880de0        0x8 arch/arm/cpu/armv7/start.o
 .rel.text.env_print
                0x0000000087880de8       0x18 arch/arm/cpu/armv7/start.o
 .rel.text.do_env_print
                0x0000000087880e00       0x10 arch/arm/cpu/armv7/start.o
 .rel.text.do_env_import
                0x0000000087880e10       0x48 arch/arm/cpu/armv7/start.o
 .rel.text.do_env_default
                0x0000000087880e58        0x8 arch/arm/cpu/armv7/start.o
 .rel.text._do_env_set.isra.0
                0x0000000087880e60       0x30 arch/arm/cpu/armv7/start.o
 .rel.text.get_env_id
                0x0000000087880e90        0x8 arch/arm/cpu/armv7/start.o
 .rel.text.env_set
                0x0000000087880e98        0x8 arch/arm/cpu/armv7/start.o
 .rel.text.env_set_hex
                0x0000000087880ea0        0x8 arch/arm/cpu/armv7/start.o
 .rel.text.do_env_export
                0x0000000087880ea8       0x30 arch/arm/cpu/armv7/start.o
 .rel.text.env_get_f
                0x0000000087880ed8        0x8 arch/arm/cpu/armv7/start.o
 .rel.text.env_get
                0x0000000087880ee0        0x8 arch/arm/cpu/armv7/start.o
 .rel.text.do_env_edit.part.3
                0x0000000087880ee8       0x18 arch/arm/cpu/armv7/start.o
 .rel.rodata.op_table
                0x0000000087880f00       0x68 arch/arm/cpu/armv7/start.o
 .rel.rodata.desc_and_len_tbl
                0x0000000087880f68       0x30 arch/arm/cpu/armv7/start.o
 .rel.rodata.reg_0_5_desc_tbl
                0x0000000087880f98       0x30 arch/arm/cpu/armv7/start.o
 .rel.rodata.reg_0_desc_tbl
                0x0000000087880fc8       0x50 arch/arm/cpu/armv7/start.o
 .rel.rodata.reg_1_desc_tbl
                0x0000000087881018       0x80 arch/arm/cpu/armv7/start.o
 .rel.rodata.reg_2_desc_tbl
                0x0000000087881098        0x8 arch/arm/cpu/armv7/start.o
 .rel.rodata.reg_3_desc_tbl
                0x00000000878810a0       0x18 arch/arm/cpu/armv7/start.o
 .rel.rodata.reg_4_desc_tbl
                0x00000000878810b8       0x60 arch/arm/cpu/armv7/start.o
 .rel.rodata.reg_5_desc_tbl
                0x0000000087881118       0x60 arch/arm/cpu/armv7/start.o
 .rel.rodata.op_adv
                0x0000000087881178       0x80 arch/arm/cpu/armv7/start.o
 .rel.rodata.CSWTCH.23
                0x00000000878811f8       0x28 arch/arm/cpu/armv7/start.o
 .rel.u_boot_list_2_cmd_2_go
                0x0000000087881220       0x20 arch/arm/cpu/armv7/start.o
 .rel.u_boot_list_2_cmd_2_reset
                0x0000000087881240       0x20 arch/arm/cpu/armv7/start.o
 .rel.data.cmd_bootm_sub
                0x0000000087881260       0xd8 arch/arm/cpu/armv7/start.o
 .rel.u_boot_list_2_cmd_2_boot
                0x0000000087881338       0x20 arch/arm/cpu/armv7/start.o
 .rel.u_boot_list_2_cmd_2_bootd
                0x0000000087881358       0x20 arch/arm/cpu/armv7/start.o
 .rel.u_boot_list_2_cmd_2_bootm
                0x0000000087881378       0x20 arch/arm/cpu/armv7/start.o
 .rel.u_boot_list_2_cmd_2_iminfo
                0x0000000087881398       0x20 arch/arm/cpu/armv7/start.o
 .rel.u_boot_list_2_cmd_2_help
                0x00000000878813b8       0x20 arch/arm/cpu/armv7/start.o
 .rel.u_boot_list_2_cmd_2_question_mark
                0x00000000878813d8       0x20 arch/arm/cpu/armv7/start.o
 .rel.u_boot_list_2_cmd_2_version
                0x00000000878813f8       0x20 arch/arm/cpu/armv7/start.o
 .rel.u_boot_list_2_cmd_2_source
                0x0000000087881418       0x20 arch/arm/cpu/armv7/start.o
 .rel.u_boot_list_2_cmd_2_bdinfo
                0x0000000087881438       0x20 arch/arm/cpu/armv7/start.o
 .rel.data.cmd_bmp_sub
                0x0000000087881458       0x40 arch/arm/cpu/armv7/start.o
 .rel.u_boot_list_2_cmd_2_bmp
                0x0000000087881498       0x20 arch/arm/cpu/armv7/start.o
 .rel.u_boot_list_2_cmd_2_bootefi
                0x00000000878814b8       0x20 arch/arm/cpu/armv7/start.o
 .rel.u_boot_list_2_cmd_2_bootz
                0x00000000878814d8       0x20 arch/arm/cpu/armv7/start.o
 .rel.u_boot_list_2_cmd_2_dcache
                0x00000000878814f8       0x20 arch/arm/cpu/armv7/start.o
 .rel.u_boot_list_2_cmd_2_icache
                0x0000000087881518       0x20 arch/arm/cpu/armv7/start.o
 .rel.u_boot_list_2_cmd_2_coninfo
                0x0000000087881538       0x20 arch/arm/cpu/armv7/start.o
 .rel.u_boot_list_2_cmd_2_echo
                0x0000000087881558       0x20 arch/arm/cpu/armv7/start.o
 .rel.u_boot_list_2_cmd_2_bootelf
                0x0000000087881578       0x20 arch/arm/cpu/armv7/start.o
 .rel.u_boot_list_2_cmd_2_bootvx
                0x0000000087881598       0x20 arch/arm/cpu/armv7/start.o
 .rel.u_boot_list_2_cmd_2_exit
                0x00000000878815b8       0x20 arch/arm/cpu/armv7/start.o
 .rel.u_boot_list_2_cmd_2_fatinfo
                0x00000000878815d8       0x20 arch/arm/cpu/armv7/start.o
 .rel.u_boot_list_2_cmd_2_fatload
                0x00000000878815f8       0x20 arch/arm/cpu/armv7/start.o
 .rel.u_boot_list_2_cmd_2_fatls
                0x0000000087881618       0x20 arch/arm/cpu/armv7/start.o
 .rel.u_boot_list_2_cmd_2_fatsize
                0x0000000087881638       0x20 arch/arm/cpu/armv7/start.o
 .rel.u_boot_list_2_cmd_2_fdt
                0x0000000087881658       0x20 arch/arm/cpu/armv7/start.o
 .rel.u_boot_list_2_cmd_2_fstype
                0x0000000087881678       0x20 arch/arm/cpu/armv7/start.o
 .rel.u_boot_list_2_cmd_2_load
                0x0000000087881698       0x20 arch/arm/cpu/armv7/start.o
 .rel.u_boot_list_2_cmd_2_ls
                0x00000000878816b8       0x20 arch/arm/cpu/armv7/start.o
 .rel.u_boot_list_2_cmd_2_save
                0x00000000878816d8       0x20 arch/arm/cpu/armv7/start.o
 .rel.u_boot_list_2_cmd_2_size
                0x00000000878816f8       0x20 arch/arm/cpu/armv7/start.o
 .rel.u_boot_list_2_cmd_2_fuse
                0x0000000087881718       0x20 arch/arm/cpu/armv7/start.o
 .rel.u_boot_list_2_cmd_2_gpio
                0x0000000087881738       0x20 arch/arm/cpu/armv7/start.o
 .rel.data.cmd_i2c_sub
                0x0000000087881758      0x1a0 arch/arm/cpu/armv7/start.o
 .rel.u_boot_list_2_cmd_2_i2c
                0x00000000878818f8       0x20 arch/arm/cpu/armv7/start.o
 .rel.u_boot_list_2_cmd_2_itest
                0x0000000087881918       0x20 arch/arm/cpu/armv7/start.o
 .rel.u_boot_list_2_cmd_2_loadb
                0x0000000087881938       0x20 arch/arm/cpu/armv7/start.o
 .rel.u_boot_list_2_cmd_2_loads
                0x0000000087881958       0x20 arch/arm/cpu/armv7/start.o
 .rel.u_boot_list_2_cmd_2_loadx
                0x0000000087881978       0x20 arch/arm/cpu/armv7/start.o
 .rel.u_boot_list_2_cmd_2_loady
                0x0000000087881998       0x20 arch/arm/cpu/armv7/start.o
 .rel.u_boot_list_2_cmd_2_base
                0x00000000878819b8       0x20 arch/arm/cpu/armv7/start.o
 .rel.u_boot_list_2_cmd_2_cmp
                0x00000000878819d8       0x20 arch/arm/cpu/armv7/start.o
 .rel.u_boot_list_2_cmd_2_cp
                0x00000000878819f8       0x20 arch/arm/cpu/armv7/start.o
 .rel.u_boot_list_2_cmd_2_crc32
                0x0000000087881a18       0x20 arch/arm/cpu/armv7/start.o
 .rel.u_boot_list_2_cmd_2_loop
                0x0000000087881a38       0x20 arch/arm/cpu/armv7/start.o
 .rel.u_boot_list_2_cmd_2_md
                0x0000000087881a58       0x20 arch/arm/cpu/armv7/start.o
 .rel.u_boot_list_2_cmd_2_mm
                0x0000000087881a78       0x20 arch/arm/cpu/armv7/start.o
 .rel.u_boot_list_2_cmd_2_mtest
                0x0000000087881a98       0x20 arch/arm/cpu/armv7/start.o
 .rel.u_boot_list_2_cmd_2_mw
                0x0000000087881ab8       0x20 arch/arm/cpu/armv7/start.o
 .rel.u_boot_list_2_cmd_2_nm
                0x0000000087881ad8       0x20 arch/arm/cpu/armv7/start.o
 .rel.u_boot_list_2_cmd_2_mii
                0x0000000087881af8       0x20 arch/arm/cpu/armv7/start.o
 .rel.u_boot_list_2_cmd_2_mdio
                0x0000000087881b18       0x20 arch/arm/cpu/armv7/start.o
 .rel.u_boot_list_2_cmd_2_sleep
                0x0000000087881b38       0x20 arch/arm/cpu/armv7/start.o
 .rel.data.cmd_mmc
                0x0000000087881b58      0x1c0 arch/arm/cpu/armv7/start.o
 .rel.u_boot_list_2_cmd_2_mmc
                0x0000000087881d18       0x20 arch/arm/cpu/armv7/start.o
 .rel.u_boot_list_2_cmd_2_mmcinfo
                0x0000000087881d38       0x20 arch/arm/cpu/armv7/start.o
 .rel.u_boot_list_2_cmd_2_bootp
                0x0000000087881d58       0x20 arch/arm/cpu/armv7/start.o
 .rel.u_boot_list_2_cmd_2_dhcp
                0x0000000087881d78       0x20 arch/arm/cpu/armv7/start.o
 .rel.u_boot_list_2_cmd_2_nfs
                0x0000000087881d98       0x20 arch/arm/cpu/armv7/start.o
 .rel.u_boot_list_2_cmd_2_ping
                0x0000000087881db8       0x20 arch/arm/cpu/armv7/start.o
 .rel.u_boot_list_2_cmd_2_tftpboot
                0x0000000087881dd8       0x20 arch/arm/cpu/armv7/start.o
 .rel.u_boot_list_2_cmd_2_setexpr
                0x0000000087881df8       0x20 arch/arm/cpu/armv7/start.o
 .rel.u_boot_list_2_cmd_2_false
                0x0000000087881e18       0x18 arch/arm/cpu/armv7/start.o
 .rel.u_boot_list_2_cmd_2_test
                0x0000000087881e30       0x20 arch/arm/cpu/armv7/start.o
 .rel.u_boot_list_2_cmd_2_true
                0x0000000087881e50       0x18 arch/arm/cpu/armv7/start.o
 .rel.u_boot_list_2_cmd_2_usb
                0x0000000087881e68       0x20 arch/arm/cpu/armv7/start.o
 .rel.u_boot_list_2_cmd_2_usbboot
                0x0000000087881e88       0x20 arch/arm/cpu/armv7/start.o
 .rel.u_boot_list_2_cmd_2_fastboot
                0x0000000087881ea8       0x20 arch/arm/cpu/armv7/start.o
 .rel.u_boot_list_2_cmd_2_ums
                0x0000000087881ec8       0x20 arch/arm/cpu/armv7/start.o
 .rel.u_boot_list_2_cmd_2_imxtract
                0x0000000087881ee8       0x20 arch/arm/cpu/armv7/start.o
 .rel.data.cmd_env_sub
                0x0000000087881f08      0x140 arch/arm/cpu/armv7/start.o
 .rel.u_boot_list_2_cmd_2_editenv
                0x0000000087882048       0x28 arch/arm/cpu/armv7/start.o
 .rel.u_boot_list_2_cmd_2_env
                0x0000000087882070       0x20 arch/arm/cpu/armv7/start.o
 .rel.u_boot_list_2_cmd_2_printenv
                0x0000000087882090       0x28 arch/arm/cpu/armv7/start.o
 .rel.u_boot_list_2_cmd_2_run
                0x00000000878820b8       0x28 arch/arm/cpu/armv7/start.o
 .rel.u_boot_list_2_cmd_2_saveenv
                0x00000000878820e0       0x20 arch/arm/cpu/armv7/start.o
 .rel.u_boot_list_2_cmd_2_setenv
                0x0000000087882100       0x28 arch/arm/cpu/armv7/start.o
 .rel.text.main_loop
                0x0000000087882128        0x8 arch/arm/cpu/armv7/start.o
 .rel.text.jumptable_init
                0x0000000087882130       0xd0 arch/arm/cpu/armv7/start.o
 .rel.text.hash_lookup_algo
                0x0000000087882200        0x8 arch/arm/cpu/armv7/start.o
 .rel.text.hash_command
                0x0000000087882208       0x28 arch/arm/cpu/armv7/start.o
 .rel.text.mapset
                0x0000000087882230        0x8 arch/arm/cpu/armv7/start.o
 .rel.text.syntax_err
                0x0000000087882238        0x8 arch/arm/cpu/armv7/start.o
 .rel.text.xmalloc
                0x0000000087882240        0x8 arch/arm/cpu/armv7/start.o
 .rel.text.xrealloc
                0x0000000087882248        0x8 arch/arm/cpu/armv7/start.o
 .rel.text.done_word
                0x0000000087882250        0x8 arch/arm/cpu/armv7/start.o
 .rel.text.is_assignment
                0x0000000087882258        0x8 arch/arm/cpu/armv7/start.o
 .rel.text.file_get
                0x0000000087882260       0x30 arch/arm/cpu/armv7/start.o
 .rel.text.do_showvar
                0x0000000087882290       0x20 arch/arm/cpu/armv7/start.o
 .rel.text.b_addqchr
                0x00000000878822b0        0x8 arch/arm/cpu/armv7/start.o
 .rel.text.get_local_var
                0x00000000878822b8       0x20 arch/arm/cpu/armv7/start.o
 .rel.text.set_local_var
                0x00000000878822d8       0x20 arch/arm/cpu/armv7/start.o
 .rel.text.insert_var_value_sub
                0x00000000878822f8        0x8 arch/arm/cpu/armv7/start.o
 .rel.text.parse_string_outer
                0x0000000087882300       0x18 arch/arm/cpu/armv7/start.o
 .rel.text.run_list_real
                0x0000000087882318       0x40 arch/arm/cpu/armv7/start.o
 .rel.text.parse_stream_outer
                0x0000000087882358       0x68 arch/arm/cpu/armv7/start.o
 .rel.text.parse_file_outer
                0x00000000878823c0       0x10 arch/arm/cpu/armv7/start.o
 .rel.text.u_boot_hush_start
                0x00000000878823d0       0x18 arch/arm/cpu/armv7/start.o
 .rel.text.bootdelay_process
                0x00000000878823e8       0x50 arch/arm/cpu/armv7/start.o
 .rel.text.autoboot_command
                0x0000000087882438       0x20 arch/arm/cpu/armv7/start.o
 .rel.text.setup_mon_len
                0x0000000087882458       0x10 arch/arm/cpu/armv7/start.o
 .rel.text.announce_dram_init
                0x0000000087882468        0x8 arch/arm/cpu/armv7/start.o
 .rel.text.init_func_i2c
                0x0000000087882470       0x10 arch/arm/cpu/armv7/start.o
 .rel.text.init_baud_rate
                0x0000000087882480        0x8 arch/arm/cpu/armv7/start.o
 .rel.text.show_dram_config
                0x0000000087882488        0x8 arch/arm/cpu/armv7/start.o
 .rel.text.board_init_f
                0x0000000087882490        0x8 arch/arm/cpu/armv7/start.o
 .rel.text.initr_net
                0x0000000087882498        0x8 arch/arm/cpu/armv7/start.o
 .rel.text.initr_ethaddr
                0x00000000878824a0        0x8 arch/arm/cpu/armv7/start.o
 .rel.text.initr_env
                0x00000000878824a8       0x10 arch/arm/cpu/armv7/start.o
 .rel.text.initr_mmc
                0x00000000878824b8        0x8 arch/arm/cpu/armv7/start.o
 .rel.text.initr_reloc_global_data
                0x00000000878824c0       0x18 arch/arm/cpu/armv7/start.o
 .rel.text.board_init_r
                0x00000000878824d8        0x8 arch/arm/cpu/armv7/start.o
 .rel.text.bootm_find_images
                0x00000000878824e0       0x20 arch/arm/cpu/armv7/start.o
 .rel.text.bootm_decomp_image
                0x0000000087882500       0x48 arch/arm/cpu/armv7/start.o
 .rel.text.do_bootm_states
                0x0000000087882548       0xf0 arch/arm/cpu/armv7/start.o
 .rel.text.do_bootm_standalone
                0x0000000087882638       0x18 arch/arm/cpu/armv7/start.o
 .rel.text.do_bootm_qnxelf
                0x0000000087882650       0x20 arch/arm/cpu/armv7/start.o
 .rel.text.do_bootvx_fdt
                0x0000000087882670       0x38 arch/arm/cpu/armv7/start.o
 .rel.text.do_bootm_vxworks
                0x00000000878826a8       0x18 arch/arm/cpu/armv7/start.o
 .rel.text.bootm_os_get_boot_func
                0x00000000878826c0        0x8 arch/arm/cpu/armv7/start.o
 .rel.text.fdt_find_or_add_subnode
                0x00000000878826c8       0x10 arch/arm/cpu/armv7/start.o
 .rel.text.fdt_root
                0x00000000878826d8       0x20 arch/arm/cpu/armv7/start.o
 .rel.text.fdt_initrd
                0x00000000878826f8       0x30 arch/arm/cpu/armv7/start.o
 .rel.text.fdt_chosen
                0x0000000087882728       0x20 arch/arm/cpu/armv7/start.o
 .rel.text.do_fixup_by_path
                0x0000000087882748        0x8 arch/arm/cpu/armv7/start.o
 .rel.text.fdt_fixup_memory_banks
                0x0000000087882750       0x38 arch/arm/cpu/armv7/start.o
 .rel.text.fdt_fixup_ethernet
                0x0000000087882788       0x30 arch/arm/cpu/armv7/start.o
 .rel.text.miiphy_get_dev_by_name
                0x00000000878827b8       0x10 arch/arm/cpu/armv7/start.o
 .rel.text.miiphy_init
                0x00000000878827c8       0x10 arch/arm/cpu/armv7/start.o
 .rel.text.mdio_register
                0x00000000878827d8       0x18 arch/arm/cpu/armv7/start.o
 .rel.text.mdio_unregister
                0x00000000878827f0        0x8 arch/arm/cpu/armv7/start.o
 .rel.text.mdio_list_devices
                0x00000000878827f8       0x28 arch/arm/cpu/armv7/start.o
 .rel.text.miiphy_set_current_dev
                0x0000000087882820       0x10 arch/arm/cpu/armv7/start.o
 .rel.text.miiphy_get_active_dev
                0x0000000087882830        0x8 arch/arm/cpu/armv7/start.o
 .rel.text.mdio_get_current_dev
                0x0000000087882838        0x8 arch/arm/cpu/armv7/start.o
 .rel.text.mdio_phydev_for_ethname
                0x0000000087882840       0x10 arch/arm/cpu/armv7/start.o
 .rel.text.miiphy_get_current_dev
                0x0000000087882850        0x8 arch/arm/cpu/armv7/start.o
 .rel.text.miiphy_listdev
                0x0000000087882858       0x30 arch/arm/cpu/armv7/start.o
 .rel.text.miiphy_speed
                0x0000000087882888       0x20 arch/arm/cpu/armv7/start.o
 .rel.text.miiphy_duplex
                0x00000000878828a8       0x20 arch/arm/cpu/armv7/start.o
 .rel.text.usb_stop
                0x00000000878828c8       0x18 arch/arm/cpu/armv7/start.o
 .rel.text.usb_disable_asynch
                0x00000000878828e0        0x8 arch/arm/cpu/armv7/start.o
 .rel.text.usb_control_msg
                0x00000000878828e8        0x8 arch/arm/cpu/armv7/start.o
 .rel.text.get_descriptor_len
                0x00000000878828f0       0x10 arch/arm/cpu/armv7/start.o
 .rel.text.usb_setup_descriptor
                0x0000000087882900       0x10 arch/arm/cpu/armv7/start.o
 .rel.text.usb_string_sub
                0x0000000087882910        0x8 arch/arm/cpu/armv7/start.o
 .rel.text.usb_get_configuration_len
                0x0000000087882918       0x10 arch/arm/cpu/armv7/start.o
 .rel.text.usb_set_interface
                0x0000000087882928        0x8 arch/arm/cpu/armv7/start.o
 .rel.text.usb_get_dev_index
                0x0000000087882930        0x8 arch/arm/cpu/armv7/start.o
 .rel.text.usb_alloc_new_device
                0x0000000087882938       0x18 arch/arm/cpu/armv7/start.o
 .rel.text.usb_free_device
                0x0000000087882950       0x10 arch/arm/cpu/armv7/start.o
 .rel.text.usb_select_config
                0x0000000087882960       0x70 arch/arm/cpu/armv7/start.o
 .rel.text.usb_setup_device
                0x00000000878829d0       0x10 arch/arm/cpu/armv7/start.o
 .rel.text.usb_init
                0x00000000878829e0       0x58 arch/arm/cpu/armv7/start.o
 .rel.text.usb_find_usb2_hub_address_port
                0x0000000087882a38        0x8 arch/arm/cpu/armv7/start.o
 .rel.text.usb_hub_reset
                0x0000000087882a40       0x10 arch/arm/cpu/armv7/start.o
 .rel.text.usb_hub_port_connect_change
                0x0000000087882a50       0x10 arch/arm/cpu/armv7/start.o
 .rel.text.usb_hub_configure
                0x0000000087882a60       0x40 arch/arm/cpu/armv7/start.o
 .rel.text.usb_stor_BBB_transport
                0x0000000087882aa0       0x10 arch/arm/cpu/armv7/start.o
 .rel.text.usb_stor_CB_comdat
                0x0000000087882ab0        0x8 arch/arm/cpu/armv7/start.o
 .rel.text.usb_stor_CBI_get_status.isra.5
                0x0000000087882ab8        0x8 arch/arm/cpu/armv7/start.o
 .rel.text.usb_stor_CB_transport
                0x0000000087882ac0       0x10 arch/arm/cpu/armv7/start.o
 .rel.text.usb_request_sense.constprop.11
                0x0000000087882ad0        0x8 arch/arm/cpu/armv7/start.o
 .rel.text.usb_stor_read
                0x0000000087882ad8       0x10 arch/arm/cpu/armv7/start.o
 .rel.text.usb_stor_write
                0x0000000087882ae8       0x10 arch/arm/cpu/armv7/start.o
 .rel.text.usb_stor_info
                0x0000000087882af8       0x20 arch/arm/cpu/armv7/start.o
 .rel.text.usb_storage_probe
                0x0000000087882b18       0x38 arch/arm/cpu/armv7/start.o
 .rel.text.usb_stor_get_info
                0x0000000087882b50       0x20 arch/arm/cpu/armv7/start.o
 .rel.text.usb_stor_scan
                0x0000000087882b70       0x40 arch/arm/cpu/armv7/start.o
 .rel.text.splash_screen_prepare
                0x0000000087882bb0        0x8 arch/arm/cpu/armv7/start.o
 .rel.text.splash_get_pos
                0x0000000087882bb8        0x8 arch/arm/cpu/armv7/start.o
 .rel.text.splash_select_fs_dev
                0x0000000087882bc0       0x58 arch/arm/cpu/armv7/start.o
 .rel.text.splash_storage_read_raw.isra.2
                0x0000000087882c18        0x8 arch/arm/cpu/armv7/start.o
 .rel.text.splash_source_load
                0x0000000087882c20       0x68 arch/arm/cpu/armv7/start.o
 .rel.text.delete_char.part.0
                0x0000000087882c88       0x10 arch/arm/cpu/armv7/start.o
 .rel.text.cread_add_char
                0x0000000087882c98        0x8 arch/arm/cpu/armv7/start.o
 .rel.text.cli_readline_into_buffer
                0x0000000087882ca0      0x178 arch/arm/cpu/armv7/start.o
 .rel.text.cli_readline
                0x0000000087882e18        0x8 arch/arm/cpu/armv7/start.o
 .rel.text.console_setfile
                0x0000000087882e20       0x30 arch/arm/cpu/armv7/start.o
 .rel.text.fgetc
                0x0000000087882e50        0x8 arch/arm/cpu/armv7/start.o
 .rel.text.ftstc
                0x0000000087882e58        0x8 arch/arm/cpu/armv7/start.o
 .rel.text.fputc
                0x0000000087882e60        0x8 arch/arm/cpu/armv7/start.o
 .rel.text.fputs
                0x0000000087882e68        0x8 arch/arm/cpu/armv7/start.o
 .rel.text.ctrlc
                0x0000000087882e70       0x10 arch/arm/cpu/armv7/start.o
 .rel.text.confirm_yesno
                0x0000000087882e80       0x20 arch/arm/cpu/armv7/start.o
 .rel.text.had_ctrlc
                0x0000000087882ea0        0x8 arch/arm/cpu/armv7/start.o
 .rel.text.clear_ctrlc
                0x0000000087882ea8        0x8 arch/arm/cpu/armv7/start.o
 .rel.text.on_console
                0x0000000087882eb0       0x20 arch/arm/cpu/armv7/start.o
 .rel.text.stdio_print_current_devices
                0x0000000087882ed0       0x40 arch/arm/cpu/armv7/start.o
 .rel.text.console_init_r
                0x0000000087882f10       0x58 arch/arm/cpu/armv7/start.o
 .rel.text.sbrk
                0x0000000087882f68       0x18 arch/arm/cpu/armv7/start.o
 .rel.text.mem_malloc_init
                0x0000000087882f80       0x18 arch/arm/cpu/armv7/start.o
 .rel.text.malloc_trim
                0x0000000087882f98       0x18 arch/arm/cpu/armv7/start.o
 .rel.text.free
                0x0000000087882fb0       0x20 arch/arm/cpu/armv7/start.o
 .rel.text.malloc
                0x0000000087882fd0       0x48 arch/arm/cpu/armv7/start.o
 .rel.text.calloc
                0x0000000087883018        0x8 arch/arm/cpu/armv7/start.o
 .rel.text.realloc
                0x0000000087883020       0x10 arch/arm/cpu/armv7/start.o
 .rel.text.on_loadaddr
                0x0000000087883030        0x8 arch/arm/cpu/armv7/start.o
 .rel.text.env_get_bootm_low
                0x0000000087883038        0x8 arch/arm/cpu/armv7/start.o
 .rel.text.env_get_bootm_size
                0x0000000087883040       0x10 arch/arm/cpu/armv7/start.o
 .rel.text.env_get_bootm_mapsize
                0x0000000087883050        0x8 arch/arm/cpu/armv7/start.o
 .rel.text.genimg_print_size
                0x0000000087883058       0x10 arch/arm/cpu/armv7/start.o
 .rel.text.genimg_get_os_name
                0x0000000087883068       0x10 arch/arm/cpu/armv7/start.o
 .rel.text.genimg_get_arch_name
                0x0000000087883078       0x10 arch/arm/cpu/armv7/start.o
 .rel.text.genimg_get_type_name
                0x0000000087883088       0x10 arch/arm/cpu/armv7/start.o
 .rel.text.genimg_get_comp_name
                0x0000000087883098       0x10 arch/arm/cpu/armv7/start.o
 .rel.text.image_print_contents
                0x00000000878830a8       0x58 arch/arm/cpu/armv7/start.o
 .rel.text.genimg_get_os_id
                0x0000000087883100       0x10 arch/arm/cpu/armv7/start.o
 .rel.text.genimg_get_arch_id
                0x0000000087883110       0x10 arch/arm/cpu/armv7/start.o
 .rel.text.genimg_get_type_id
                0x0000000087883120       0x10 arch/arm/cpu/armv7/start.o
 .rel.text.genimg_get_comp_id
                0x0000000087883130       0x10 arch/arm/cpu/armv7/start.o
 .rel.text.genimg_get_kernel_addr_fit
                0x0000000087883140        0x8 arch/arm/cpu/armv7/start.o
 .rel.text.boot_get_ramdisk
                0x0000000087883148       0x60 arch/arm/cpu/armv7/start.o
 .rel.text.boot_ramdisk_high
                0x00000000878831a8       0x20 arch/arm/cpu/armv7/start.o
 .rel.text.boot_get_loadable
                0x00000000878831c8       0x20 arch/arm/cpu/armv7/start.o
 .rel.text.fdt_error
                0x00000000878831e8       0x10 arch/arm/cpu/armv7/start.o
 .rel.text.boot_fdt_add_mem_rsv_regions
                0x00000000878831f8        0x8 arch/arm/cpu/armv7/start.o
 .rel.text.boot_relocate_fdt
                0x0000000087883200       0x40 arch/arm/cpu/armv7/start.o
 .rel.text.boot_get_fdt
                0x0000000087883240       0x90 arch/arm/cpu/armv7/start.o
 .rel.text.image_setup_libfdt
                0x00000000878832d0       0x30 arch/arm/cpu/armv7/start.o
 .rel.text.fit_image_get_address
                0x0000000087883300        0x8 arch/arm/cpu/armv7/start.o
 .rel.text.fit_get_desc
                0x0000000087883308        0x8 arch/arm/cpu/armv7/start.o
 .rel.text.fit_image_get_node
                0x0000000087883310        0x8 arch/arm/cpu/armv7/start.o
 .rel.text.fit_image_get_os
                0x0000000087883318        0x8 arch/arm/cpu/armv7/start.o
 .rel.text.fit_image_get_arch
                0x0000000087883320        0x8 arch/arm/cpu/armv7/start.o
 .rel.text.fit_image_get_type
                0x0000000087883328        0x8 arch/arm/cpu/armv7/start.o
 .rel.text.fit_image_get_comp
                0x0000000087883330        0x8 arch/arm/cpu/armv7/start.o
 .rel.text.fit_image_get_load
                0x0000000087883338        0x8 arch/arm/cpu/armv7/start.o
 .rel.text.fit_image_get_entry
                0x0000000087883340        0x8 arch/arm/cpu/armv7/start.o
 .rel.text.fit_image_get_data
                0x0000000087883348        0x8 arch/arm/cpu/armv7/start.o
 .rel.text.fit_image_get_data_offset
                0x0000000087883350        0x8 arch/arm/cpu/armv7/start.o
 .rel.text.fit_image_get_data_size
                0x0000000087883358        0x8 arch/arm/cpu/armv7/start.o
 .rel.text.fit_image_hash_get_algo
                0x0000000087883360        0x8 arch/arm/cpu/armv7/start.o
 .rel.text.fit_image_hash_get_value
                0x0000000087883368        0x8 arch/arm/cpu/armv7/start.o
 .rel.text.fit_image_print_data
                0x0000000087883370       0x58 arch/arm/cpu/armv7/start.o
 .rel.text.fit_image_print
                0x00000000878833c8       0x88 arch/arm/cpu/armv7/start.o
 .rel.text.calculate_hash
                0x0000000087883450       0x20 arch/arm/cpu/armv7/start.o
 .rel.text.fit_image_verify
                0x0000000087883470       0x68 arch/arm/cpu/armv7/start.o
 .rel.text.fit_all_image_verify
                0x00000000878834d8       0x28 arch/arm/cpu/armv7/start.o
 .rel.text.fit_check_format
                0x0000000087883500       0x10 arch/arm/cpu/armv7/start.o
 .rel.text.fit_conf_get_node
                0x0000000087883510       0x10 arch/arm/cpu/armv7/start.o
 .rel.text.fit_conf_print
                0x0000000087883520       0x70 arch/arm/cpu/armv7/start.o
 .rel.text.fit_print_contents
                0x0000000087883590       0x58 arch/arm/cpu/armv7/start.o
 .rel.text.fit_image_load
                0x00000000878835e8       0xa0 arch/arm/cpu/armv7/start.o
 .rel.text.boot_get_setup_fit
                0x0000000087883688        0x8 arch/arm/cpu/armv7/start.o
 .rel.text.boot_get_fdt_fit
                0x0000000087883690       0x10 arch/arm/cpu/armv7/start.o
 .rel.text.stdio_get_list
                0x00000000878836a0        0x8 arch/arm/cpu/armv7/start.o
 .rel.text.stdio_get_by_name
                0x00000000878836a8        0x8 arch/arm/cpu/armv7/start.o
 .rel.text.stdio_register_dev
                0x00000000878836b0        0x8 arch/arm/cpu/armv7/start.o
 .rel.text.stdio_init_tables
                0x00000000878836b8        0x8 arch/arm/cpu/armv7/start.o
 .rel.text.stdio_add_devices
                0x00000000878836c0       0x48 arch/arm/cpu/armv7/start.o
 .rel.text.write_sparse_image
                0x0000000087883708       0xb8 arch/arm/cpu/armv7/start.o
 .rel.text.do_run
                0x00000000878837c0        0x8 arch/arm/cpu/armv7/start.o
 .rel.text.find_cmd
                0x00000000878837c8       0x10 arch/arm/cpu/armv7/start.o
 .rel.text.cmd_usage
                0x00000000878837d8       0x18 arch/arm/cpu/armv7/start.o
 .rel.text._do_help
                0x00000000878837f0       0x10 arch/arm/cpu/armv7/start.o
 .rel.text.var_complete
                0x0000000087883800       0x10 arch/arm/cpu/armv7/start.o
 .rel.text.cmd_auto_complete
                0x0000000087883810       0x48 arch/arm/cpu/armv7/start.o
 .rel.text.cmd_get_data_size
                0x0000000087883858        0x8 arch/arm/cpu/armv7/start.o
 .rel.text.cmd_process
                0x0000000087883860       0x18 arch/arm/cpu/armv7/start.o
 .rel.text.cmd_process_error
                0x0000000087883878        0x8 arch/arm/cpu/armv7/start.o
 .rel.text.srec_decode
                0x0000000087883880       0x50 arch/arm/cpu/armv7/start.o
 .rel.text.xyzModem_get_hdr
                0x00000000878838d0       0x30 arch/arm/cpu/armv7/start.o
 .rel.text.xyzModem_stream_open
                0x0000000087883900       0x10 arch/arm/cpu/armv7/start.o
 .rel.text.xyzModem_stream_read
                0x0000000087883910        0x8 arch/arm/cpu/armv7/start.o
 .rel.text.xyzModem_stream_close
                0x0000000087883918       0x20 arch/arm/cpu/armv7/start.o
 .rel.text.xyzModem_stream_terminate
                0x0000000087883938        0x8 arch/arm/cpu/armv7/start.o
 .rel.text.xyzModem_error
                0x0000000087883940       0x10 arch/arm/cpu/armv7/start.o
 .rel.rodata.init_sequence_f
                0x0000000087883950      0x158 arch/arm/cpu/armv7/start.o
 .rel.rodata.boot_os
                0x0000000087883aa8       0x20 arch/arm/cpu/armv7/start.o
 .rel.rodata.uimage_arch
                0x0000000087883ac8      0x1a0 arch/arm/cpu/armv7/start.o
 .rel.rodata.uimage_comp
                0x0000000087883c68       0x70 arch/arm/cpu/armv7/start.o
 .rel.rodata.uimage_os
                0x0000000087883cd8       0xb0 arch/arm/cpu/armv7/start.o
 .rel.rodata.uimage_type
                0x0000000087883d88      0x210 arch/arm/cpu/armv7/start.o
 .rel.rodata.CSWTCH.158
                0x0000000087883f98       0xd8 arch/arm/cpu/armv7/start.o
 .rel.rodata.CSWTCH.32
                0x0000000087884070       0x40 arch/arm/cpu/armv7/start.o
 .rel.data.hash_algo
                0x00000000878840b0       0x78 arch/arm/cpu/armv7/start.o
 .rel.data.reserved_list
                0x0000000087884128       0x58 arch/arm/cpu/armv7/start.o
 .rel.u_boot_list_2_cmd_2_showvar
                0x0000000087884180       0x20 arch/arm/cpu/armv7/start.o
 .rel.data.init_sequence_r
                0x00000000878841a0      0x100 arch/arm/cpu/armv7/start.o
 .rel.data.usb_scan_list
                0x00000000878842a0       0x10 arch/arm/cpu/armv7/start.o
 .rel.u_boot_list_2_blk_driver_2_usb
                0x00000000878842b0       0x10 arch/arm/cpu/armv7/start.o
 .rel.data.default_splash_locations
                0x00000000878842c0       0x38 arch/arm/cpu/armv7/start.o
 .rel.u_boot_list_2_env_clbk_2_console
                0x00000000878842f8       0x10 arch/arm/cpu/armv7/start.o
 .rel.data.av_  0x0000000087884308      0x800 arch/arm/cpu/armv7/start.o
 .rel.u_boot_list_2_env_clbk_2_loadaddr
                0x0000000087884b08       0x10 arch/arm/cpu/armv7/start.o
 .rel.data.stdio_names
                0x0000000087884b18       0x18 arch/arm/cpu/armv7/start.o
 .rel.text.dev_print
                0x0000000087884b30      0x120 arch/arm/cpu/armv7/start.o
 .rel.text.part_init
                0x0000000087884c50       0x10 arch/arm/cpu/armv7/start.o
 .rel.text.part_print
                0x0000000087884c60       0xc8 arch/arm/cpu/armv7/start.o
 .rel.text.part_get_info
                0x0000000087884d28       0x10 arch/arm/cpu/armv7/start.o
 .rel.text.part_get_info_whole_disk
                0x0000000087884d38       0x10 arch/arm/cpu/armv7/start.o
 .rel.text.blk_get_device_by_str
                0x0000000087884d48       0x18 arch/arm/cpu/armv7/start.o
 .rel.text.blk_get_device_part_str
                0x0000000087884d60       0x58 arch/arm/cpu/armv7/start.o
 .rel.text.part_set_generic_name
                0x0000000087884db8       0x18 arch/arm/cpu/armv7/start.o
 .rel.text.test_block_type
                0x0000000087884dd0       0x10 arch/arm/cpu/armv7/start.o
 .rel.text.print_partition_extended
                0x0000000087884de0       0x30 arch/arm/cpu/armv7/start.o
 .rel.text.part_print_dos
                0x0000000087884e10        0x8 arch/arm/cpu/armv7/start.o
 .rel.text.part_get_info_extended.constprop.1
                0x0000000087884e18       0x18 arch/arm/cpu/armv7/start.o
 .rel.text.print_efiname
                0x0000000087884e30       0x10 arch/arm/cpu/armv7/start.o
 .rel.text.validate_gpt_header
                0x0000000087884e40       0x30 arch/arm/cpu/armv7/start.o
 .rel.text.is_gpt_valid
                0x0000000087884e70       0x40 arch/arm/cpu/armv7/start.o
 .rel.text.is_pte_valid
                0x0000000087884eb0       0x10 arch/arm/cpu/armv7/start.o
 .rel.text.part_print_efi
                0x0000000087884ec0       0x60 arch/arm/cpu/armv7/start.o
 .rel.text.part_get_info_efi
                0x0000000087884f20       0x30 arch/arm/cpu/armv7/start.o
 .rel.text.write_backup_gpt_partitions
                0x0000000087884f50       0x28 arch/arm/cpu/armv7/start.o
 .rel.rodata.CSWTCH.40
                0x0000000087884f78       0x40 arch/arm/cpu/armv7/start.o
 .rel.u_boot_list_2_part_driver_2_dos
                0x0000000087884fb8       0x20 arch/arm/cpu/armv7/start.o
 .rel.u_boot_list_2_part_driver_2_a_efi
                0x0000000087884fd8       0x20 arch/arm/cpu/armv7/start.o
 .rel.text.device_bind_common.isra.0
                0x0000000087884ff8       0x10 arch/arm/cpu/armv7/start.o
 .rel.text.device_probe
                0x0000000087885008       0x10 arch/arm/cpu/armv7/start.o
 .rel.text.dev_get_platdata
                0x0000000087885018       0x10 arch/arm/cpu/armv7/start.o
 .rel.text.dev_get_priv
                0x0000000087885028       0x10 arch/arm/cpu/armv7/start.o
 .rel.text.lists_driver_lookup_name
                0x0000000087885038       0x10 arch/arm/cpu/armv7/start.o
 .rel.text.lists_uclass_lookup
                0x0000000087885048       0x10 arch/arm/cpu/armv7/start.o
 .rel.text.lists_bind_drivers
                0x0000000087885058       0x18 arch/arm/cpu/armv7/start.o
 .rel.text.dm_root
                0x0000000087885070        0x8 arch/arm/cpu/armv7/start.o
 .rel.text.dm_init
                0x0000000087885078       0x10 arch/arm/cpu/armv7/start.o
 .rel.text.dm_scan_platdata
                0x0000000087885088        0x8 arch/arm/cpu/armv7/start.o
 .rel.text.uclass_resolve_seq
                0x0000000087885090        0x8 arch/arm/cpu/armv7/start.o
 .rel.text.device_remove
                0x0000000087885098       0x20 arch/arm/cpu/armv7/start.o
 .rel.text.show_devices
                0x00000000878850b8       0x30 arch/arm/cpu/armv7/start.o
 .rel.text.dm_dump_all
                0x00000000878850e8       0x10 arch/arm/cpu/armv7/start.o
 .rel.text.dm_dump_uclass
                0x00000000878850f8       0x20 arch/arm/cpu/armv7/start.o
 .rel.text.blk_driver_lookup_type
                0x0000000087885118       0x10 arch/arm/cpu/armv7/start.o
 .rel.text.blk_list_devices
                0x0000000087885128        0x8 arch/arm/cpu/armv7/start.o
 .rel.text.blk_print_device_num
                0x0000000087885130        0x8 arch/arm/cpu/armv7/start.o
 .rel.text.blk_show_device
                0x0000000087885138       0x10 arch/arm/cpu/armv7/start.o
 .rel.text.blk_get_devnum_by_typename
                0x0000000087885148       0x10 arch/arm/cpu/armv7/start.o
 .rel.text.finish_access
                0x0000000087885158        0x8 arch/arm/cpu/armv7/start.o
 .rel.text.prepare_access
                0x0000000087885160        0x8 arch/arm/cpu/armv7/start.o
 .rel.text.fuse_read
                0x0000000087885168        0x8 arch/arm/cpu/armv7/start.o
 .rel.text.fuse_sense
                0x0000000087885170       0x10 arch/arm/cpu/armv7/start.o
 .rel.text.fuse_prog
                0x0000000087885180       0x28 arch/arm/cpu/armv7/start.o
 .rel.text.fuse_override
                0x00000000878851a8        0x8 arch/arm/cpu/armv7/start.o
 .rel.text.mmc_set_capacity
                0x00000000878851b0       0x40 arch/arm/cpu/armv7/start.o
 .rel.text.mmc_mode_name
                0x00000000878851f0       0x10 arch/arm/cpu/armv7/start.o
 .rel.text.mmc_send_status
                0x0000000087885200       0x10 arch/arm/cpu/armv7/start.o
 .rel.text.mmc_set_card_speed.constprop.13
                0x0000000087885210       0x30 arch/arm/cpu/armv7/start.o
 .rel.text.mmc_startup_v4
                0x0000000087885240        0x8 arch/arm/cpu/armv7/start.o
 .rel.text.mmc_bread
                0x0000000087885248       0x10 arch/arm/cpu/armv7/start.o
 .rel.text.mmc_hwpart_config
                0x0000000087885258       0x48 arch/arm/cpu/armv7/start.o
 .rel.text.mmc_startup
                0x00000000878852a0       0x88 arch/arm/cpu/armv7/start.o
 .rel.text.mmc_start_init
                0x0000000087885328       0x10 arch/arm/cpu/armv7/start.o
 .rel.text.mmc_initialize
                0x0000000087885338        0x8 arch/arm/cpu/armv7/start.o
 .rel.text.mmc_berase
                0x0000000087885340       0x10 arch/arm/cpu/armv7/start.o
 .rel.text.mmc_bwrite
                0x0000000087885350       0x18 arch/arm/cpu/armv7/start.o
 .rel.text.find_mmc_device
                0x0000000087885368       0x10 arch/arm/cpu/armv7/start.o
 .rel.text.mmc_get_next_devnum
                0x0000000087885378        0x8 arch/arm/cpu/armv7/start.o
 .rel.text.get_mmc_num
                0x0000000087885380        0x8 arch/arm/cpu/armv7/start.o
 .rel.text.mmc_do_preinit
                0x0000000087885388        0x8 arch/arm/cpu/armv7/start.o
 .rel.text.mmc_list_init
                0x0000000087885390       0x10 arch/arm/cpu/armv7/start.o
 .rel.text.mmc_list_add
                0x00000000878853a0        0x8 arch/arm/cpu/armv7/start.o
 .rel.text.print_mmc_devices
                0x00000000878853a8       0x40 arch/arm/cpu/armv7/start.o
 .rel.text.mmc_create
                0x00000000878853e8       0x18 arch/arm/cpu/armv7/start.o
 .rel.text.esdhc_send_cmd
                0x0000000087885400       0x20 arch/arm/cpu/armv7/start.o
 .rel.text.fsl_esdhc_initialize
                0x0000000087885420       0x20 arch/arm/cpu/armv7/start.o
 .rel.text.video_drawchars
                0x0000000087885440       0x80 arch/arm/cpu/armv7/start.o
 .rel.text.video_invertchar
                0x00000000878854c0       0x10 arch/arm/cpu/armv7/start.o
 .rel.text.draw_bitmap
                0x00000000878854d0       0x28 arch/arm/cpu/armv7/start.o
 .rel.text.console_cursor.part.0
                0x00000000878854f8        0x8 arch/arm/cpu/armv7/start.o
 .rel.text.console_newline.constprop.3
                0x0000000087885500       0x30 arch/arm/cpu/armv7/start.o
 .rel.text.console_cursor
                0x0000000087885530       0x38 arch/arm/cpu/armv7/start.o
 .rel.text.cfb_video_putc
                0x0000000087885568       0x70 arch/arm/cpu/armv7/start.o
 .rel.text.cfb_video_puts
                0x00000000878855d8       0x10 arch/arm/cpu/armv7/start.o
 .rel.text.display_rle8_bitmap
                0x00000000878855e8       0x40 arch/arm/cpu/armv7/start.o
 .rel.text.plot_logo_or_black
                0x0000000087885628       0x50 arch/arm/cpu/armv7/start.o
 .rel.text.do_clrlogo
                0x0000000087885678       0x18 arch/arm/cpu/armv7/start.o
 .rel.text.video_display_bitmap
                0x0000000087885690       0x98 arch/arm/cpu/armv7/start.o
 .rel.text.video_clear
                0x0000000087885728       0x18 arch/arm/cpu/armv7/start.o
 .rel.text.drv_video_init
                0x0000000087885740      0x100 arch/arm/cpu/armv7/start.o
 .rel.text.mxs_lcd_panel_setup
                0x0000000087885840       0x20 arch/arm/cpu/armv7/start.o
 .rel.text.lcdif_power_down
                0x0000000087885860        0x8 arch/arm/cpu/armv7/start.o
 .rel.text.video_hw_init
                0x0000000087885868       0x78 arch/arm/cpu/armv7/start.o
 .rel.text.video_get_params
                0x00000000878858e0       0x88 arch/arm/cpu/armv7/start.o
 .rel.text.imx_thermal_get_temp
                0x0000000087885968       0x10 arch/arm/cpu/armv7/start.o
 .rel.rodata.root_info
                0x0000000087885978        0x8 arch/arm/cpu/armv7/start.o
 .rel.rodata.names.10776
                0x0000000087885980       0x70 arch/arm/cpu/armv7/start.o
 .rel.rodata.esdhc_ops
                0x00000000878859f0       0x20 arch/arm/cpu/armv7/start.o
 .rel.rodata.imx_thermal_ops
                0x0000000087885a10        0x8 arch/arm/cpu/armv7/start.o
 .rel.u_boot_list_2_driver_2_root_driver
                0x0000000087885a18        0x8 arch/arm/cpu/armv7/start.o
 .rel.u_boot_list_2_uclass_2_root
                0x0000000087885a20        0x8 arch/arm/cpu/armv7/start.o
 .rel.u_boot_list_2_blk_driver_2_mmc
                0x0000000087885a28       0x18 arch/arm/cpu/armv7/start.o
 .rel.u_boot_list_2_cmd_2_clrlogo
                0x0000000087885a40       0x20 arch/arm/cpu/armv7/start.o
 .rel.u_boot_list_2_uclass_2_thermal
                0x0000000087885a60        0x8 arch/arm/cpu/armv7/start.o
 .rel.u_boot_list_2_driver_2_imx_thermal
                0x0000000087885a68       0x18 arch/arm/cpu/armv7/start.o
 .rel.text.mxc_gpio_direction
                0x0000000087885a80       0x10 arch/arm/cpu/armv7/start.o
 .rel.text.gpio_set_value
                0x0000000087885a90       0x10 arch/arm/cpu/armv7/start.o
 .rel.text.gpio_get_value
                0x0000000087885aa0       0x10 arch/arm/cpu/armv7/start.o
 .rel.text.gpio_request
                0x0000000087885ab0        0x8 arch/arm/cpu/armv7/start.o
 .rel.text.i2c_get_adapter
                0x0000000087885ab8       0x18 arch/arm/cpu/armv7/start.o
 .rel.text.i2c_init_bus
                0x0000000087885ad0       0x10 arch/arm/cpu/armv7/start.o
 .rel.text.i2c_set_bus_num
                0x0000000087885ae0       0x18 arch/arm/cpu/armv7/start.o
 .rel.text.wait_for_sr_state
                0x0000000087885af8       0x18 arch/arm/cpu/armv7/start.o
 .rel.text.bus_i2c_set_bus_speed
                0x0000000087885b10        0x8 arch/arm/cpu/armv7/start.o
 .rel.text.mxc_i2c_set_bus_speed
                0x0000000087885b18        0x8 arch/arm/cpu/armv7/start.o
 .rel.text.i2c_imx_stop
                0x0000000087885b20       0x10 arch/arm/cpu/armv7/start.o
 .rel.text.i2c_init_transfer
                0x0000000087885b30       0x18 arch/arm/cpu/armv7/start.o
 .rel.text.mxc_i2c_probe
                0x0000000087885b48        0x8 arch/arm/cpu/armv7/start.o
 .rel.text.mxc_i2c_read
                0x0000000087885b50        0x8 arch/arm/cpu/armv7/start.o
 .rel.text.mxc_i2c_write
                0x0000000087885b58        0x8 arch/arm/cpu/armv7/start.o
 .rel.text.bus_i2c_init
                0x0000000087885b60        0x8 arch/arm/cpu/armv7/start.o
 .rel.u_boot_list_2_i2c_2_mxc0
                0x0000000087885b68       0x30 arch/arm/cpu/armv7/start.o
 .rel.u_boot_list_2_i2c_2_mxc1
                0x0000000087885b98       0x30 arch/arm/cpu/armv7/start.o
 .rel.u_boot_list_2_i2c_2_mxc2
                0x0000000087885bc8       0x30 arch/arm/cpu/armv7/start.o
 .rel.u_boot_list_2_i2c_2_mxc3
                0x0000000087885bf8       0x30 arch/arm/cpu/armv7/start.o
 .rel.text.fec_phy_write
                0x0000000087885c28        0x8 arch/arm/cpu/armv7/start.o
 .rel.text.fec_phy_read
                0x0000000087885c30        0x8 arch/arm/cpu/armv7/start.o
 .rel.text.fec_send
                0x0000000087885c38        0x8 arch/arm/cpu/armv7/start.o
 .rel.text.fec_init
                0x0000000087885c40        0x8 arch/arm/cpu/armv7/start.o
 .rel.text.fec_recv
                0x0000000087885c48        0x8 arch/arm/cpu/armv7/start.o
 .rel.text.fec_get_miibus
                0x0000000087885c50       0x30 arch/arm/cpu/armv7/start.o
 .rel.text.fec_probe
                0x0000000087885c80       0x70 arch/arm/cpu/armv7/start.o
 .rel.text.genphy_update_link
                0x0000000087885cf0       0x28 arch/arm/cpu/armv7/start.o
 .rel.text.phy_register
                0x0000000087885d18        0x8 arch/arm/cpu/armv7/start.o
 .rel.text.get_phy_device_by_mask
                0x0000000087885d20       0x18 arch/arm/cpu/armv7/start.o
 .rel.text.phy_reset
                0x0000000087885d38        0x8 arch/arm/cpu/armv7/start.o
 .rel.text.phy_connect_dev
                0x0000000087885d40        0x8 arch/arm/cpu/armv7/start.o
 .rel.text.bcm54xx_parse_status
                0x0000000087885d48       0x40 arch/arm/cpu/armv7/start.o
 .rel.text.bcm5482_startup
                0x0000000087885d88        0x8 arch/arm/cpu/armv7/start.o
 .rel.text.phy_broadcom_init
                0x0000000087885d90       0x20 arch/arm/cpu/armv7/start.o
 .rel.data.genphy_driver
                0x0000000087885db0       0x20 arch/arm/cpu/armv7/start.o
 .rel.data.phy_drivers
                0x0000000087885dd0       0x10 arch/arm/cpu/armv7/start.o
 .rel.data.BCM5461S_driver
                0x0000000087885de0       0x20 arch/arm/cpu/armv7/start.o
 .rel.data.BCM5464S_driver
                0x0000000087885e00       0x20 arch/arm/cpu/armv7/start.o
 .rel.data.BCM5482S_driver
                0x0000000087885e20       0x20 arch/arm/cpu/armv7/start.o
 .rel.data.BCM_CYGNUS_driver
                0x0000000087885e40       0x20 arch/arm/cpu/armv7/start.o
 .rel.text.check_reg
                0x0000000087885e60        0x8 arch/arm/cpu/armv7/start.o
 .rel.text.pmic_alloc
                0x0000000087885e68       0x18 arch/arm/cpu/armv7/start.o
 .rel.text.pmic_get
                0x0000000087885e80        0x8 arch/arm/cpu/armv7/start.o
 .rel.text.do_pmic
                0x0000000087885e88       0xa0 arch/arm/cpu/armv7/start.o
 .rel.text.pmic_reg_write
                0x0000000087885f28       0x10 arch/arm/cpu/armv7/start.o
 .rel.text.pmic_reg_read
                0x0000000087885f38       0x10 arch/arm/cpu/armv7/start.o
 .rel.text.pmic_probe
                0x0000000087885f48        0x8 arch/arm/cpu/armv7/start.o
 .rel.data.pmic_list
                0x0000000087885f50       0x10 arch/arm/cpu/armv7/start.o
 .rel.u_boot_list_2_cmd_2_pmic
                0x0000000087885f60       0x20 arch/arm/cpu/armv7/start.o
 .rel.text.power_pfuze3000_init
                0x0000000087885f80       0x18 arch/arm/cpu/armv7/start.o
 .rel.text.get_current
                0x0000000087885f98       0x10 arch/arm/cpu/armv7/start.o
 .rel.text.serial_register
                0x0000000087885fa8        0x8 arch/arm/cpu/armv7/start.o
 .rel.text.serial_stdio_init
                0x0000000087885fb0       0x38 arch/arm/cpu/armv7/start.o
 .rel.text.serial_assign
                0x0000000087885fe8       0x10 arch/arm/cpu/armv7/start.o
 .rel.text.on_baudrate
                0x0000000087885ff8       0x18 arch/arm/cpu/armv7/start.o
 .rel.text.mxc_serial_tstc
                0x0000000087886010        0x8 arch/arm/cpu/armv7/start.o
 .rel.text.mxc_serial_initialize
                0x0000000087886018        0x8 arch/arm/cpu/armv7/start.o
 .rel.text.default_serial_console
                0x0000000087886020        0x8 arch/arm/cpu/armv7/start.o
 .rel.u_boot_list_2_env_clbk_2_baudrate
                0x0000000087886028       0x10 arch/arm/cpu/armv7/start.o
 .rel.data.mxc_serial_drv
                0x0000000087886038       0x30 arch/arm/cpu/armv7/start.o
 .rel.text.usb_host_eth_scan
                0x0000000087886068       0x50 arch/arm/cpu/armv7/start.o
 .rel.text.asix_init
                0x00000000878860b8       0x18 arch/arm/cpu/armv7/start.o
 .rel.text.asix_eth_before_probe
                0x00000000878860d0        0x8 arch/arm/cpu/armv7/start.o
 .rel.text.asix_eth_probe
                0x00000000878860d8        0x8 arch/arm/cpu/armv7/start.o
 .rel.text.asix_eth_get_info
                0x00000000878860e0       0x40 arch/arm/cpu/armv7/start.o
 .rel.rodata.prob_dev
                0x0000000087886120       0x18 arch/arm/cpu/armv7/start.o
 .rel.text.usb_ep_autoconfig
                0x0000000087886138        0x8 arch/arm/cpu/armv7/start.o
 .rel.text.usb_ep_autoconfig_reset
                0x0000000087886140        0x8 arch/arm/cpu/armv7/start.o
 .rel.text.ci_ep_free_request
                0x0000000087886148        0x8 arch/arm/cpu/armv7/start.o
 .rel.text.ci_ep_alloc_request
                0x0000000087886150        0x8 arch/arm/cpu/armv7/start.o
 .rel.text.ci_flush_qtd
                0x0000000087886158        0x8 arch/arm/cpu/armv7/start.o
 .rel.text.ci_flush_qh
                0x0000000087886160        0x8 arch/arm/cpu/armv7/start.o
 .rel.text.stop_activity
                0x0000000087886168        0x8 arch/arm/cpu/armv7/start.o
 .rel.text.ep_enable
                0x0000000087886170        0x8 arch/arm/cpu/armv7/start.o
 .rel.text.ci_ep_enable
                0x0000000087886178        0x8 arch/arm/cpu/armv7/start.o
 .rel.text.ci_ep_submit_next_request
                0x0000000087886180        0x8 arch/arm/cpu/armv7/start.o
 .rel.text.ci_ep_queue
                0x0000000087886188       0x10 arch/arm/cpu/armv7/start.o
 .rel.text.udc_irq
                0x0000000087886198       0x40 arch/arm/cpu/armv7/start.o
 .rel.text.usb_gadget_handle_interrupts
                0x00000000878861d8        0x8 arch/arm/cpu/armv7/start.o
 .rel.text.udc_disconnect
                0x00000000878861e0        0x8 arch/arm/cpu/armv7/start.o
 .rel.text.ci_pullup
                0x00000000878861e8        0x8 arch/arm/cpu/armv7/start.o
 .rel.text.usb_gadget_register_driver
                0x00000000878861f0       0x40 arch/arm/cpu/armv7/start.o
 .rel.text.usb_gadget_unregister_driver
                0x0000000087886230        0x8 arch/arm/cpu/armv7/start.o
 .rel.text.composite_suspend
                0x0000000087886238        0x8 arch/arm/cpu/armv7/start.o
 .rel.text.composite_resume
                0x0000000087886240        0x8 arch/arm/cpu/armv7/start.o
 .rel.text.composite_unbind
                0x0000000087886248       0x28 arch/arm/cpu/armv7/start.o
 .rel.text.composite_bind
                0x0000000087886270       0x18 arch/arm/cpu/armv7/start.o
 .rel.text.g_dnl_do_config
                0x0000000087886288        0x8 arch/arm/cpu/armv7/start.o
 .rel.text.composite_disconnect
                0x0000000087886290        0x8 arch/arm/cpu/armv7/start.o
 .rel.text.count_ext_compat
                0x0000000087886298       0x20 arch/arm/cpu/armv7/start.o
 .rel.text.composite_setup
                0x00000000878862b8       0xe8 arch/arm/cpu/armv7/start.o
 .rel.text.usb_composite_register
                0x00000000878863a0       0x18 arch/arm/cpu/armv7/start.o
 .rel.text.usb_composite_unregister
                0x00000000878863b8       0x10 arch/arm/cpu/armv7/start.o
 .rel.text.g_dnl_set_serialnumber
                0x00000000878863c8        0x8 arch/arm/cpu/armv7/start.o
 .rel.text.g_dnl_bind
                0x00000000878863d0       0x30 arch/arm/cpu/armv7/start.o
 .rel.text.g_dnl_detach
                0x0000000087886400        0x8 arch/arm/cpu/armv7/start.o
 .rel.text.g_dnl_trigger_detach
                0x0000000087886408        0x8 arch/arm/cpu/armv7/start.o
 .rel.text.g_dnl_clear_detach
                0x0000000087886410        0x8 arch/arm/cpu/armv7/start.o
 .rel.text.g_dnl_register
                0x0000000087886418       0x18 arch/arm/cpu/armv7/start.o
 .rel.text.g_dnl_unregister
                0x0000000087886430        0x8 arch/arm/cpu/armv7/start.o
 .rel.text.fsg_setup
                0x0000000087886438       0x18 arch/arm/cpu/armv7/start.o
 .rel.text.sleep_thread.isra.17
                0x0000000087886450       0x70 arch/arm/cpu/armv7/start.o
 .rel.text.do_read
                0x00000000878864c0       0x20 arch/arm/cpu/armv7/start.o
 .rel.text.do_write
                0x00000000878864e0       0x28 arch/arm/cpu/armv7/start.o
 .rel.text.send_status
                0x0000000087886508       0x18 arch/arm/cpu/armv7/start.o
 .rel.text.check_command.isra.18
                0x0000000087886520       0x10 arch/arm/cpu/armv7/start.o
 .rel.text.fsg_add
                0x0000000087886530       0x80 arch/arm/cpu/armv7/start.o
 .rel.text.do_set_interface
                0x00000000878865b0       0x30 arch/arm/cpu/armv7/start.o
 .rel.text.fsg_main_thread
                0x00000000878865e0       0x78 arch/arm/cpu/armv7/start.o
 .rel.text.fsg_bind
                0x0000000087886658       0x38 arch/arm/cpu/armv7/start.o
 .rel.text.fsg_init
                0x0000000087886690       0x18 arch/arm/cpu/armv7/start.o
 .rel.text.fastboot_complete
                0x00000000878866a8        0x8 arch/arm/cpu/armv7/start.o
 .rel.text.get_block_size
                0x00000000878866b0       0x20 arch/arm/cpu/armv7/start.o
 .rel.text.fastboot_tx_write
                0x00000000878866d0       0x10 arch/arm/cpu/armv7/start.o
 .rel.text.cb_continue
                0x00000000878866e0       0x18 arch/arm/cpu/armv7/start.o
 .rel.text.cb_boot
                0x00000000878866f8       0x18 arch/arm/cpu/armv7/start.o
 .rel.text.cb_reboot_bootloader
                0x0000000087886710       0x18 arch/arm/cpu/armv7/start.o
 .rel.text.rx_handler_command
                0x0000000087886728       0x30 arch/arm/cpu/armv7/start.o
 .rel.text.fastboot_unbind
                0x0000000087886758       0x10 arch/arm/cpu/armv7/start.o
 .rel.text.fastboot_add
                0x0000000087886768       0x38 arch/arm/cpu/armv7/start.o
 .rel.text.do_bootm_on_complete
                0x00000000878867a0       0x20 arch/arm/cpu/armv7/start.o
 .rel.text.fastboot_tx_write_more
                0x00000000878867c0       0x28 arch/arm/cpu/armv7/start.o
 .rel.text.fastboot_bind
                0x00000000878867e8       0x78 arch/arm/cpu/armv7/start.o
 .rel.text.rx_bytes_expected.isra.0
                0x0000000087886860       0x10 arch/arm/cpu/armv7/start.o
 .rel.text.cb_download
                0x0000000087886870       0x40 arch/arm/cpu/armv7/start.o
 .rel.text.rx_handler_dl_image
                0x00000000878868b0       0x40 arch/arm/cpu/armv7/start.o
 .rel.text.fastboot_fifo_complete
                0x00000000878868f0       0x10 arch/arm/cpu/armv7/start.o
 .rel.text.bootloader_mmc_offset
                0x0000000087886900        0x8 arch/arm/cpu/armv7/start.o
 .rel.text.do_acmd_complete
                0x0000000087886908        0x8 arch/arm/cpu/armv7/start.o
 .rel.text.cb_run_uboot_acmd
                0x0000000087886910       0x38 arch/arm/cpu/armv7/start.o
 .rel.text.cb_upload
                0x0000000087886948       0x30 arch/arm/cpu/armv7/start.o
 .rel.text.fastboot_set_alt
                0x0000000087886978       0x60 arch/arm/cpu/armv7/start.o
 .rel.text.parse_env.isra.7.constprop.13
                0x00000000878869d8       0x10 arch/arm/cpu/armv7/start.o
 .rel.text.bootloader_gpt_overlay
                0x00000000878869e8        0x8 arch/arm/cpu/armv7/start.o
 .rel.text.write_backup_gpt
                0x00000000878869f0       0x38 arch/arm/cpu/armv7/start.o
 .rel.text.fastboot_flash_add_ptn
                0x0000000087886a28       0x10 arch/arm/cpu/armv7/start.o
 .rel.text._fastboot_parts_load_from_ptable
                0x0000000087886a38       0x90 arch/arm/cpu/armv7/start.o
 .rel.text.fastboot_flash_dump_ptn
                0x0000000087886ac8       0x18 arch/arm/cpu/armv7/start.o
 .rel.text.fastboot_flash_find_ptn
                0x0000000087886ae0       0x10 arch/arm/cpu/armv7/start.o
 .rel.text.cb_erase
                0x0000000087886af0       0x98 arch/arm/cpu/armv7/start.o
 .rel.text.get_single_var
                0x0000000087886b88      0x140 arch/arm/cpu/armv7/start.o
 .rel.text.cb_getvar
                0x0000000087886cc8       0xf8 arch/arm/cpu/armv7/start.o
 .rel.text.board_fastboot_setup
                0x0000000087886dc0       0xa8 arch/arm/cpu/armv7/start.o
 .rel.text.fastboot_setup
                0x0000000087886e68       0x48 arch/arm/cpu/armv7/start.o
 .rel.text.cb_run_uboot_cmd
                0x0000000087886eb0       0x28 arch/arm/cpu/armv7/start.o
 .rel.text.fastboot_run_bootmode
                0x0000000087886ed8        0x8 arch/arm/cpu/armv7/start.o
 .rel.text.fastboot_fail
                0x0000000087886ee0       0x10 arch/arm/cpu/armv7/start.o
 .rel.text.fastboot_okay
                0x0000000087886ef0       0x10 arch/arm/cpu/armv7/start.o
 .rel.text.cb_flash
                0x0000000087886f00      0x180 arch/arm/cpu/armv7/start.o
 .rel.text.cb_reboot
                0x0000000087887080       0x28 arch/arm/cpu/armv7/start.o
 .rel.rodata.ci_ep_init
                0x00000000878870a8       0x50 arch/arm/cpu/armv7/start.o
 .rel.rodata.cmd_dispatch_info
                0x00000000878870f8       0xc0 arch/arm/cpu/armv7/start.o
 .rel.data.ci_ep_ops
                0x00000000878871b8       0x30 arch/arm/cpu/armv7/start.o
 .rel.data.ci_udc_ops
                0x00000000878871e8        0x8 arch/arm/cpu/armv7/start.o
 .rel.data.controller
                0x00000000878871f0       0x10 arch/arm/cpu/armv7/start.o
 .rel.data.composite_driver
                0x0000000087887200       0x38 arch/arm/cpu/armv7/start.o
 .rel.data.g_dnl_composite_strings
                0x0000000087887238        0x8 arch/arm/cpu/armv7/start.o
 .rel.data.g_dnl_driver
                0x0000000087887240       0x20 arch/arm/cpu/armv7/start.o
 .rel.data.g_dnl_string_defs
                0x0000000087887260       0x18 arch/arm/cpu/armv7/start.o
 .rel.data.g_dnl_string_tab
                0x0000000087887278        0x8 arch/arm/cpu/armv7/start.o
 .rel.u_boot_list_2_env_clbk_2_serialno
                0x0000000087887280       0x10 arch/arm/cpu/armv7/start.o
 .rel.data.fsg_fs_function
                0x0000000087887290       0x18 arch/arm/cpu/armv7/start.o
 .rel.data.fsg_hs_function
                0x00000000878872a8       0x18 arch/arm/cpu/armv7/start.o
 .rel.data.fsg_strings
                0x00000000878872c0        0x8 arch/arm/cpu/armv7/start.o
 .rel.data.fsg_strings_array
                0x00000000878872c8        0x8 arch/arm/cpu/armv7/start.o
 .rel.data.fsg_stringtab
                0x00000000878872d0        0x8 arch/arm/cpu/armv7/start.o
 .rel.u_boot_list_2_g_dnl_bind_callbacks_2___usb_function_name_usb_dnl_ums
                0x00000000878872d8       0x10 arch/arm/cpu/armv7/start.o
 .rel.data.fastboot_common_var
                0x00000000878872e8       0x68 arch/arm/cpu/armv7/start.o
 .rel.data.fastboot_string_defs
                0x0000000087887350        0x8 arch/arm/cpu/armv7/start.o
 .rel.data.fastboot_strings
                0x0000000087887358        0x8 arch/arm/cpu/armv7/start.o
 .rel.data.fb_ext_prop
                0x0000000087887360       0x10 arch/arm/cpu/armv7/start.o
 .rel.data.fb_fs_function
                0x0000000087887370       0x18 arch/arm/cpu/armv7/start.o
 .rel.data.fb_hs_function
                0x0000000087887388       0x18 arch/arm/cpu/armv7/start.o
 .rel.data.fb_os_desc
                0x00000000878873a0        0x8 arch/arm/cpu/armv7/start.o
 .rel.data.fb_os_desc_table
                0x00000000878873a8        0x8 arch/arm/cpu/armv7/start.o
 .rel.data.fb_ss_function
                0x00000000878873b0       0x28 arch/arm/cpu/armv7/start.o
 .rel.data.stringtab_fastboot
                0x00000000878873d8        0x8 arch/arm/cpu/armv7/start.o
 .rel.u_boot_list_2_g_dnl_bind_callbacks_2___usb_function_name_usb_dnl_fastboot
                0x00000000878873e0       0x10 arch/arm/cpu/armv7/start.o
 .rel.text.ehci_shutdown
                0x00000000878873f0        0x8 arch/arm/cpu/armv7/start.o
 .rel.text.ehci_td_buffer
                0x00000000878873f8        0x8 arch/arm/cpu/armv7/start.o
 .rel.text.disable_periodic.isra.2
                0x0000000087887400        0x8 arch/arm/cpu/armv7/start.o
 .rel.text.enable_periodic.isra.3
                0x0000000087887408        0x8 arch/arm/cpu/armv7/start.o
 .rel.text._ehci_destroy_int_queue
                0x0000000087887410        0x8 arch/arm/cpu/armv7/start.o
 .rel.text.ehci_submit_async
                0x0000000087887418       0x30 arch/arm/cpu/armv7/start.o
 .rel.text._ehci_create_int_queue.isra.6
                0x0000000087887448       0x10 arch/arm/cpu/armv7/start.o
 .rel.text.ehci_set_controller_priv
                0x0000000087887458       0x28 arch/arm/cpu/armv7/start.o
 .rel.text.usb_lowlevel_stop
                0x0000000087887480        0x8 arch/arm/cpu/armv7/start.o
 .rel.text.usb_lowlevel_init
                0x0000000087887488       0x40 arch/arm/cpu/armv7/start.o
 .rel.text.submit_control_msg
                0x00000000878874c8       0x28 arch/arm/cpu/armv7/start.o
 .rel.text.submit_int_msg
                0x00000000878874f0        0x8 arch/arm/cpu/armv7/start.o
 .rel.text.ehci_hcd_init
                0x00000000878874f8        0x8 arch/arm/cpu/armv7/start.o
 .rel.rodata.mx6_ehci_ops
                0x0000000087887500        0x8 arch/arm/cpu/armv7/start.o
 .rel.text.set_default_env
                0x0000000087887508       0x28 arch/arm/cpu/armv7/start.o
 .rel.text.set_default_vars
                0x0000000087887530       0x10 arch/arm/cpu/armv7/start.o
 .rel.text.env_import
                0x0000000087887540       0x28 arch/arm/cpu/armv7/start.o
 .rel.text.env_export
                0x0000000087887568       0x18 arch/arm/cpu/armv7/start.o
 .rel.text.env_relocate
                0x0000000087887580        0x8 arch/arm/cpu/armv7/start.o
 .rel.text.env_complete
                0x0000000087887588       0x18 arch/arm/cpu/armv7/start.o
 .rel.text.env_driver_lookup
                0x00000000878875a0       0x10 arch/arm/cpu/armv7/start.o
 .rel.text.env_get_char
                0x00000000878875b0        0x8 arch/arm/cpu/armv7/start.o
 .rel.text.env_load
                0x00000000878875b8       0x18 arch/arm/cpu/armv7/start.o
 .rel.text.env_save
                0x00000000878875d0       0x18 arch/arm/cpu/armv7/start.o
 .rel.text.env_init
                0x00000000878875e8        0x8 arch/arm/cpu/armv7/start.o
 .rel.text.regex_callback
                0x00000000878875f0       0x10 arch/arm/cpu/armv7/start.o
 .rel.text.env_attr_lookup
                0x0000000087887600        0x8 arch/arm/cpu/armv7/start.o
 .rel.text.find_env_callback
                0x0000000087887608       0x10 arch/arm/cpu/armv7/start.o
 .rel.text.on_callbacks
                0x0000000087887618       0x20 arch/arm/cpu/armv7/start.o
 .rel.text.set_callback
                0x0000000087887638        0x8 arch/arm/cpu/armv7/start.o
 .rel.text.env_callback_init
                0x0000000087887640       0x20 arch/arm/cpu/armv7/start.o
 .rel.text.skip_num
                0x0000000087887660        0x8 arch/arm/cpu/armv7/start.o
 .rel.text.on_flags
                0x0000000087887668       0x20 arch/arm/cpu/armv7/start.o
 .rel.text.env_flags_parse_vartype
                0x0000000087887688       0x10 arch/arm/cpu/armv7/start.o
 .rel.text.env_flags_parse_varaccess
                0x0000000087887698       0x10 arch/arm/cpu/armv7/start.o
 .rel.text.set_flags
                0x00000000878876a8       0x10 arch/arm/cpu/armv7/start.o
 .rel.text.env_flags_init
                0x00000000878876b8       0x30 arch/arm/cpu/armv7/start.o
 .rel.text.env_flags_validate
                0x00000000878876e8       0x68 arch/arm/cpu/armv7/start.o
 .rel.text.fini_mmc_for_env.isra.0
                0x0000000087887750        0x8 arch/arm/cpu/armv7/start.o
 .rel.text.init_mmc_for_env
                0x0000000087887758       0x28 arch/arm/cpu/armv7/start.o
 .rel.text.env_mmc_save
                0x0000000087887780       0x20 arch/arm/cpu/armv7/start.o
 .rel.text.env_mmc_load
                0x00000000878877a0        0x8 arch/arm/cpu/armv7/start.o
 .rel.data.env_htab
                0x00000000878877a8        0x8 arch/arm/cpu/armv7/start.o
 .rel.u_boot_list_2_env_clbk_2_callbacks
                0x00000000878877b0       0x10 arch/arm/cpu/armv7/start.o
 .rel.u_boot_list_2_env_clbk_2_flags
                0x00000000878877c0       0x10 arch/arm/cpu/armv7/start.o
 .rel.u_boot_list_2_env_driver_2_mmc
                0x00000000878877d0       0x18 arch/arm/cpu/armv7/start.o
 .rel.text.fs_probe_unsupported
                0x00000000878877e8        0x8 arch/arm/cpu/armv7/start.o
 .rel.text.fs_get_info
                0x00000000878877f0        0x8 arch/arm/cpu/armv7/start.o
 .rel.text.fs_close
                0x00000000878877f8        0x8 arch/arm/cpu/armv7/start.o
 .rel.text.fs_set_blk_dev
                0x0000000087887800       0x28 arch/arm/cpu/armv7/start.o
 .rel.text.fs_set_blk_dev_with_part
                0x0000000087887828       0x20 arch/arm/cpu/armv7/start.o
 .rel.text.fs_ls
                0x0000000087887848        0x8 arch/arm/cpu/armv7/start.o
 .rel.text.fs_exists
                0x0000000087887850        0x8 arch/arm/cpu/armv7/start.o
 .rel.text.fs_size
                0x0000000087887858        0x8 arch/arm/cpu/armv7/start.o
 .rel.text.fs_read
                0x0000000087887860        0x8 arch/arm/cpu/armv7/start.o
 .rel.text.fs_write
                0x0000000087887868       0x10 arch/arm/cpu/armv7/start.o
 .rel.text.fs_opendir
                0x0000000087887878       0x20 arch/arm/cpu/armv7/start.o
 .rel.text.fs_readdir
                0x0000000087887898       0x10 arch/arm/cpu/armv7/start.o
 .rel.text.fs_closedir
                0x00000000878878a8        0x8 arch/arm/cpu/armv7/start.o
 .rel.text.fs_ls_generic
                0x00000000878878b0       0x20 arch/arm/cpu/armv7/start.o
 .rel.text.do_size
                0x00000000878878d0        0x8 arch/arm/cpu/armv7/start.o
 .rel.text.do_load
                0x00000000878878d8       0x50 arch/arm/cpu/armv7/start.o
 .rel.text.do_ls
                0x0000000087887928        0x8 arch/arm/cpu/armv7/start.o
 .rel.text.do_save
                0x0000000087887930       0x28 arch/arm/cpu/armv7/start.o
 .rel.text.do_fs_type
                0x0000000087887958       0x10 arch/arm/cpu/armv7/start.o
 .rel.text.downcase
                0x0000000087887968        0x8 arch/arm/cpu/armv7/start.o
 .rel.text.disk_read
                0x0000000087887970       0x10 arch/arm/cpu/armv7/start.o
 .rel.text.get_fatent
                0x0000000087887980        0x8 arch/arm/cpu/armv7/start.o
 .rel.text.get_cluster
                0x0000000087887988        0x8 arch/arm/cpu/armv7/start.o
 .rel.text.read_bootsectandvi
                0x0000000087887990       0x20 arch/arm/cpu/armv7/start.o
 .rel.text.fat_itr_root
                0x00000000878879b0       0x10 arch/arm/cpu/armv7/start.o
 .rel.text.fat_set_blk_dev
                0x00000000878879c0       0x28 arch/arm/cpu/armv7/start.o
 .rel.text.file_fat_detectfs
                0x00000000878879e8       0xb0 arch/arm/cpu/armv7/start.o
 .rel.text.file_fat_read_at
                0x0000000087887a98       0x18 arch/arm/cpu/armv7/start.o
 .rel.text.fat_read_file
                0x0000000087887ab0        0x8 arch/arm/cpu/armv7/start.o
 .rel.data.fstypes
                0x0000000087887ab8       0xb0 arch/arm/cpu/armv7/start.o
 .rel.text.efi_uc_destroy
                0x0000000087887b68        0x8 arch/arm/cpu/armv7/start.o
 .rel.text.efi_uc_init
                0x0000000087887b70        0x8 arch/arm/cpu/armv7/start.o
 .rel.text.check_node_type
                0x0000000087887b78       0x10 arch/arm/cpu/armv7/start.o
 .rel.text.efi_uc_start
                0x0000000087887b88        0x8 arch/arm/cpu/armv7/start.o
 .rel.text.efi_uc_supported
                0x0000000087887b90        0x8 arch/arm/cpu/armv7/start.o
 .rel.text.disconnect_child
                0x0000000087887b98        0x8 arch/arm/cpu/armv7/start.o
 .rel.text.efi_uc_stop
                0x0000000087887ba0       0x20 arch/arm/cpu/armv7/start.o
 .rel.text.efi_driver_init
                0x0000000087887bc0       0x40 arch/arm/cpu/armv7/start.o
 .rel.text.efi_load_pe
                0x0000000087887c00       0xb8 arch/arm/cpu/armv7/start.o
 .rel.text.__efi_entry_check
                0x0000000087887cb8       0x18 arch/arm/cpu/armv7/start.o
 .rel.text.__efi_exit_check
                0x0000000087887cd0       0x10 arch/arm/cpu/armv7/start.o
 .rel.text.efi_get_next_monotonic_count
                0x0000000087887ce0        0x8 arch/arm/cpu/armv7/start.o
 .rel.text.efi_start_image
                0x0000000087887ce8       0x18 arch/arm/cpu/armv7/start.o
 .rel.text.efi_close_event
                0x0000000087887d00        0x8 arch/arm/cpu/armv7/start.o
 .rel.text.efi_restore_tpl
                0x0000000087887d08        0x8 arch/arm/cpu/armv7/start.o
 .rel.text.efi_raise_tpl
                0x0000000087887d10        0x8 arch/arm/cpu/armv7/start.o
 .rel.text.efi_save_gd
                0x0000000087887d18        0x8 arch/arm/cpu/armv7/start.o
 .rel.text.efi_restore_gd
                0x0000000087887d20        0x8 arch/arm/cpu/armv7/start.o
 .rel.text.efi_exit
                0x0000000087887d28        0x8 arch/arm/cpu/armv7/start.o
 .rel.text.efi_signal_event
                0x0000000087887d30        0x8 arch/arm/cpu/armv7/start.o
 .rel.text.efi_exit_boot_services
                0x0000000087887d38       0x20 arch/arm/cpu/armv7/start.o
 .rel.text.efi_signal_event_ext
                0x0000000087887d58        0x8 arch/arm/cpu/armv7/start.o
 .rel.text.efi_add_handle
                0x0000000087887d60        0x8 arch/arm/cpu/armv7/start.o
 .rel.text.efi_create_event
                0x0000000087887d68        0x8 arch/arm/cpu/armv7/start.o
 .rel.text.efi_timer_check
                0x0000000087887d70        0x8 arch/arm/cpu/armv7/start.o
 .rel.text.efi_check_event
                0x0000000087887d78        0x8 arch/arm/cpu/armv7/start.o
 .rel.text.efi_wait_for_event
                0x0000000087887d80       0x10 arch/arm/cpu/armv7/start.o
 .rel.text.efi_set_timer
                0x0000000087887d90        0x8 arch/arm/cpu/armv7/start.o
 .rel.text.efi_search_obj
                0x0000000087887d98        0x8 arch/arm/cpu/armv7/start.o
 .rel.text.efi_locate_protocol
                0x0000000087887da0        0x8 arch/arm/cpu/armv7/start.o
 .rel.text.efi_locate_handle
                0x0000000087887da8        0x8 arch/arm/cpu/armv7/start.o
 .rel.text.efi_locate_device_path
                0x0000000087887db0        0x8 arch/arm/cpu/armv7/start.o
 .rel.text.efi_disconnect_controller
                0x0000000087887db8        0x8 arch/arm/cpu/armv7/start.o
 .rel.text.efi_bind_controller
                0x0000000087887dc0        0x8 arch/arm/cpu/armv7/start.o
 .rel.text.efi_connect_controller
                0x0000000087887dc8        0x8 arch/arm/cpu/armv7/start.o
 .rel.text.efi_add_protocol
                0x0000000087887dd0        0x8 arch/arm/cpu/armv7/start.o
 .rel.text.efi_install_configuration_table
                0x0000000087887dd8       0x10 arch/arm/cpu/armv7/start.o
 .rel.text.efi_setup_loaded_image
                0x0000000087887de8       0x38 arch/arm/cpu/armv7/start.o
 .rel.text.efi_load_image_from_path
                0x0000000087887e20       0x10 arch/arm/cpu/armv7/start.o
 .rel.text.efi_load_image
                0x0000000087887e30        0x8 arch/arm/cpu/armv7/start.o
 .rel.text.efi_runtime_relocate
                0x0000000087887e38       0x28 arch/arm/cpu/armv7/start.o
 .rel.text.efi_set_virtual_address_map
                0x0000000087887e60       0x18 arch/arm/cpu/armv7/start.o
 .rel.text.efi_cout_enable_cursor
                0x0000000087887e78        0x8 arch/arm/cpu/armv7/start.o
 .rel.text.efi_cout_set_cursor_position
                0x0000000087887e80       0x10 arch/arm/cpu/armv7/start.o
 .rel.text.efi_cout_clear_screen
                0x0000000087887e90        0x8 arch/arm/cpu/armv7/start.o
 .rel.text.efi_cout_set_attribute
                0x0000000087887e98       0x18 arch/arm/cpu/armv7/start.o
 .rel.text.efi_cout_output_string
                0x0000000087887eb0       0x40 arch/arm/cpu/armv7/start.o
 .rel.text.efi_console_timer_notify
                0x0000000087887ef0        0x8 arch/arm/cpu/armv7/start.o
 .rel.text.efi_cout_set_mode
                0x0000000087887ef8        0x8 arch/arm/cpu/armv7/start.o
 .rel.text.efi_cout_query_mode
                0x0000000087887f00       0x30 arch/arm/cpu/armv7/start.o
 .rel.text.efi_console_register
                0x0000000087887f30       0x70 arch/arm/cpu/armv7/start.o
 .rel.text.efi_find_free_memory
                0x0000000087887fa0        0x8 arch/arm/cpu/armv7/start.o
 .rel.text.efi_add_memory_map
                0x0000000087887fa8       0x10 arch/arm/cpu/armv7/start.o
 .rel.text.efi_get_memory_map
                0x0000000087887fb8        0x8 arch/arm/cpu/armv7/start.o
 .rel.text.efi_memory_init
                0x0000000087887fc0       0x10 arch/arm/cpu/armv7/start.o
 .rel.text.efi_convert_single_device_node_to_text
                0x0000000087887fd0       0x98 arch/arm/cpu/armv7/start.o
 .rel.text.find_obj
                0x0000000087888068       0x10 arch/arm/cpu/armv7/start.o
 .rel.text.efi_dp_append_node
                0x0000000087888078        0x8 arch/arm/cpu/armv7/start.o
 .rel.text.efi_dp_from_part
                0x0000000087888080       0x10 arch/arm/cpu/armv7/start.o
 .rel.text.efi_dp_from_file
                0x0000000087888090       0x10 arch/arm/cpu/armv7/start.o
 .rel.text.efi_dp_from_eth
                0x00000000878880a0       0x18 arch/arm/cpu/armv7/start.o
 .rel.text.efi_dp_from_mem
                0x00000000878880b8        0x8 arch/arm/cpu/armv7/start.o
 .rel.text.efi_file_getinfo
                0x00000000878880c0        0x8 arch/arm/cpu/armv7/start.o
 .rel.text.file_open
                0x00000000878880c8       0x28 arch/arm/cpu/armv7/start.o
 .rel.text.efi_file_from_path
                0x00000000878880f0        0x8 arch/arm/cpu/armv7/start.o
 .rel.text.efi_simple_file_system
                0x00000000878880f8        0x8 arch/arm/cpu/armv7/start.o
 .rel.text.efi_to_native
                0x0000000087888100        0x8 arch/arm/cpu/armv7/start.o
 .rel.text.parse_attr.part.1
                0x0000000087888108       0x20 arch/arm/cpu/armv7/start.o
 .rel.text.efi_get_variable
                0x0000000087888128       0x18 arch/arm/cpu/armv7/start.o
 .rel.text.efi_set_variable
                0x0000000087888140       0x48 arch/arm/cpu/armv7/start.o
 .rel.text.get_var.constprop.0
                0x0000000087888188       0x10 arch/arm/cpu/armv7/start.o
 .rel.text.efi_bootmgr_load
                0x0000000087888198       0x30 arch/arm/cpu/armv7/start.o
 .rel.text.efi_watchdog_timer_notify
                0x00000000878881c8       0x10 arch/arm/cpu/armv7/start.o
 .rel.text.efi_set_watchdog
                0x00000000878881d8        0x8 arch/arm/cpu/armv7/start.o
 .rel.text.efi_watchdog_register
                0x00000000878881e0       0x20 arch/arm/cpu/armv7/start.o
 .rel.text.efi_disk_add_dev.isra.0.part.1
                0x0000000087888200       0x38 arch/arm/cpu/armv7/start.o
 .rel.text.efi_fs_from_path
                0x0000000087888238        0x8 arch/arm/cpu/armv7/start.o
 .rel.text.efi_disk_create_partitions
                0x0000000087888240       0x18 arch/arm/cpu/armv7/start.o
 .rel.text.efi_disk_register
                0x0000000087888258       0x28 arch/arm/cpu/armv7/start.o
 .rel.text.efi_net_push
                0x0000000087888280       0x10 arch/arm/cpu/armv7/start.o
 .rel.text.efi_network_timer_notify
                0x0000000087888290       0x18 arch/arm/cpu/armv7/start.o
 .rel.text.efi_net_get_status
                0x00000000878882a8       0x10 arch/arm/cpu/armv7/start.o
 .rel.text.efi_net_transmit
                0x00000000878882b8        0x8 arch/arm/cpu/armv7/start.o
 .rel.text.efi_net_receive
                0x00000000878882c0       0x18 arch/arm/cpu/armv7/start.o
 .rel.text.efi_net_set_dhcp_ack
                0x00000000878882d8        0x8 arch/arm/cpu/armv7/start.o
 .rel.text.efi_net_register
                0x00000000878882e0       0xc0 arch/arm/cpu/armv7/start.o
 .rel.text.efi_smbios_register
                0x00000000878883a0        0x8 arch/arm/cpu/armv7/start.o
 .rel.text.fdt_next_tag
                0x00000000878883a8       0x48 arch/arm/cpu/armv7/start.o
 .rel.text.fdt_strerror
                0x00000000878883f0       0x20 arch/arm/cpu/armv7/start.o
 .rel.text.fdt_address_cells
                0x0000000087888410        0x8 arch/arm/cpu/armv7/start.o
 .rel.text.fdt_size_cells
                0x0000000087888418        0x8 arch/arm/cpu/armv7/start.o
 .rel.text.fdt_get_alias_namelen
                0x0000000087888420        0x8 arch/arm/cpu/armv7/start.o
 .rel.text.crc16_ccitt
                0x0000000087888428        0x8 arch/arm/cpu/armv7/start.o
 .rel.text.smbios_write_type3
                0x0000000087888430        0x8 arch/arm/cpu/armv7/start.o
 .rel.text.smbios_write_type2
                0x0000000087888438       0x10 arch/arm/cpu/armv7/start.o
 .rel.text.smbios_write_type0
                0x0000000087888448       0x18 arch/arm/cpu/armv7/start.o
 .rel.text.smbios_write_type1
                0x0000000087888460       0x18 arch/arm/cpu/armv7/start.o
 .rel.text.smbios_write_type4
                0x0000000087888478        0x8 arch/arm/cpu/armv7/start.o
 .rel.text.write_smbios_table
                0x0000000087888480       0x18 arch/arm/cpu/armv7/start.o
 .rel.text.initcall_run_list
                0x0000000087888498        0x8 arch/arm/cpu/armv7/start.o
 .rel.text.lmb_alloc_base
                0x00000000878884a0        0x8 arch/arm/cpu/armv7/start.o
 .rel.text.list_sort
                0x00000000878884a8        0x8 arch/arm/cpu/armv7/start.o
 .rel.text.sha1_finish
                0x00000000878884b0        0x8 arch/arm/cpu/armv7/start.o
 .rel.text.sha256_finish
                0x00000000878884b8        0x8 arch/arm/cpu/armv7/start.o
 .rel.text.inflate_fast
                0x00000000878884c0       0x18 arch/arm/cpu/armv7/start.o
 .rel.text.inflate_table
                0x00000000878884d8       0x20 arch/arm/cpu/armv7/start.o
 .rel.text.inflateInit2_
                0x00000000878884f8       0x10 arch/arm/cpu/armv7/start.o
 .rel.text.inflate
                0x0000000087888508      0x188 arch/arm/cpu/armv7/start.o
 .rel.text.gzip_parse_header
                0x0000000087888690       0x10 arch/arm/cpu/armv7/start.o
 .rel.text.zunzip
                0x00000000878886a0       0x28 arch/arm/cpu/armv7/start.o
 .rel.text.match_string
                0x00000000878886c8        0x8 arch/arm/cpu/armv7/start.o
 .rel.text.match_entry
                0x00000000878886d0        0x8 arch/arm/cpu/armv7/start.o
 .rel.text.hcreate_r
                0x00000000878886d8        0x8 arch/arm/cpu/armv7/start.o
 .rel.text.hdestroy_r
                0x00000000878886e0        0x8 arch/arm/cpu/armv7/start.o
 .rel.text.hmatch_r
                0x00000000878886e8        0x8 arch/arm/cpu/armv7/start.o
 .rel.text.hsearch_r
                0x00000000878886f0        0x8 arch/arm/cpu/armv7/start.o
 .rel.text.hdelete_r
                0x00000000878886f8        0x8 arch/arm/cpu/armv7/start.o
 .rel.text.hexport_r
                0x0000000087888700       0x18 arch/arm/cpu/armv7/start.o
 .rel.text.himport_r
                0x0000000087888718       0x20 arch/arm/cpu/armv7/start.o
 .rel.text.display_options_get_banner_priv
                0x0000000087888738       0x28 arch/arm/cpu/armv7/start.o
 .rel.text.display_options
                0x0000000087888760        0x8 arch/arm/cpu/armv7/start.o
 .rel.text.print_size
                0x0000000087888768       0x28 arch/arm/cpu/armv7/start.o
 .rel.text.print_buffer
                0x0000000087888790       0x28 arch/arm/cpu/armv7/start.o
 .rel.text.crc32_no_comp
                0x00000000878887b8        0x8 arch/arm/cpu/armv7/start.o
 .rel.text.hang
                0x00000000878887c0        0x8 arch/arm/cpu/armv7/start.o
 .rel.text.skip_spaces
                0x00000000878887c8        0x8 arch/arm/cpu/armv7/start.o
 .rel.text.strim
                0x00000000878887d0        0x8 arch/arm/cpu/armv7/start.o
 .rel.text.emit
                0x00000000878887d8        0x8 arch/arm/cpu/armv7/start.o
 .rel.text.store_char_in_data
                0x00000000878887e0        0x8 arch/arm/cpu/armv7/start.o
 .rel.text.match
                0x00000000878887e8       0x98 arch/arm/cpu/armv7/start.o
 .rel.text.quantifier
                0x0000000087888880        0x8 arch/arm/cpu/armv7/start.o
 .rel.text.fixup_branch
                0x0000000087888888        0x8 arch/arm/cpu/armv7/start.o
 .rel.text.compile
                0x0000000087888890       0x28 arch/arm/cpu/armv7/start.o
 .rel.text.slre_compile
                0x00000000878888b8        0x8 arch/arm/cpu/armv7/start.o
 .rel.text.strncasecmp
                0x00000000878888c0        0x8 arch/arm/cpu/armv7/start.o
 .rel.text.uuid_str_valid
                0x00000000878888c8        0x8 arch/arm/cpu/armv7/start.o
 .rel.text.uuid_bin_to_str
                0x00000000878888d0       0x18 arch/arm/cpu/armv7/start.o
 .rel.text.number
                0x00000000878888e8        0x8 arch/arm/cpu/armv7/start.o
 .rel.text.string16
                0x00000000878888f0        0x8 arch/arm/cpu/armv7/start.o
 .rel.text.string
                0x00000000878888f8        0x8 arch/arm/cpu/armv7/start.o
 .rel.text.vsnprintf_internal
                0x0000000087888900       0x10 arch/arm/cpu/armv7/start.o
 .rel.text.simple_itoa
                0x0000000087888910        0x8 arch/arm/cpu/armv7/start.o
 .rel.text._parse_integer_fixup_radix
                0x0000000087888918        0x8 arch/arm/cpu/armv7/start.o
 .rel.text.simple_strtoul
                0x0000000087888920        0x8 arch/arm/cpu/armv7/start.o
 .rel.text.simple_strtoull
                0x0000000087888928        0x8 arch/arm/cpu/armv7/start.o
 .rel.text.trailing_strtoln
                0x0000000087888930        0x8 arch/arm/cpu/armv7/start.o
 .rel.rodata.efi_boot_services
                0x0000000087888938      0x158 arch/arm/cpu/armv7/start.o
 .rel.rodata.efi_runtime_detach_list
                0x0000000087888a90       0x80 arch/arm/cpu/armv7/start.o
 .rel.rodata.efi_device_path_to_text
                0x0000000087888b10       0x10 arch/arm/cpu/armv7/start.o
 .rel.rodata.efi_file_handle_protocol
                0x0000000087888b20       0x50 arch/arm/cpu/armv7/start.o
 .rel.rodata.fdt_errtable
                0x0000000087888b70       0x88 arch/arm/cpu/armv7/start.o
 .rel.rodata.smbios_write_funcs
                0x0000000087888bf8       0x38 arch/arm/cpu/armv7/start.o
 .rel.u_boot_list_2_uclass_2_efi
                0x0000000087888c30       0x18 arch/arm/cpu/armv7/start.o
 .rel.data.efi_obj_list
                0x0000000087888c48       0x10 arch/arm/cpu/armv7/start.o
 .rel.data.efi_runtime_mmio
                0x0000000087888c58       0x10 arch/arm/cpu/armv7/start.o
 .rel.data.efi_con_in
                0x0000000087888c68       0x10 arch/arm/cpu/armv7/start.o
 .rel.data.efi_con_out
                0x0000000087888c78       0x50 arch/arm/cpu/armv7/start.o
 .rel.data.efi_console_control
                0x0000000087888cc8       0x18 arch/arm/cpu/armv7/start.o
 .rel.data.efi_mem
                0x0000000087888ce0       0x10 arch/arm/cpu/armv7/start.o
 .rel.text.arp_init
                0x0000000087888cf0       0x30 arch/arm/cpu/armv7/start.o
 .rel.text.arp_raw_request
                0x0000000087888d20       0x18 arch/arm/cpu/armv7/start.o
 .rel.text.arp_request
                0x0000000087888d38       0x38 arch/arm/cpu/armv7/start.o
 .rel.text.arp_timeout_check
                0x0000000087888d70       0x28 arch/arm/cpu/armv7/start.o
 .rel.text.arp_receive
                0x0000000087888d98       0x40 arch/arm/cpu/armv7/start.o
 .rel.text.dhcp_extended
                0x0000000087888dd8       0x28 arch/arm/cpu/armv7/start.o
 .rel.text.dhcp_process_options
                0x0000000087888e00       0x68 arch/arm/cpu/armv7/start.o
 .rel.text.dhcp_packet_process_options
                0x0000000087888e68        0x8 arch/arm/cpu/armv7/start.o
 .rel.text.dhcp_handler
                0x0000000087888e70       0x90 arch/arm/cpu/armv7/start.o
 .rel.text.bootp_reset
                0x0000000087888f00       0x20 arch/arm/cpu/armv7/start.o
 .rel.text.bootp_request
                0x0000000087888f20       0x78 arch/arm/cpu/armv7/start.o
 .rel.text.bootp_timeout_handler
                0x0000000087888f98       0x28 arch/arm/cpu/armv7/start.o
 .rel.text.eth_set_current_to_next
                0x0000000087888fc0        0x8 arch/arm/cpu/armv7/start.o
 .rel.text.eth_set_dev
                0x0000000087888fc8        0x8 arch/arm/cpu/armv7/start.o
 .rel.text.eth_get_dev_by_name
                0x0000000087888fd0       0x28 arch/arm/cpu/armv7/start.o
 .rel.text.eth_get_dev_by_index
                0x0000000087888ff8        0x8 arch/arm/cpu/armv7/start.o
 .rel.text.eth_get_dev_index
                0x0000000087889000        0x8 arch/arm/cpu/armv7/start.o
 .rel.text.eth_write_hwaddr
                0x0000000087889008       0x30 arch/arm/cpu/armv7/start.o
 .rel.text.on_ethaddr
                0x0000000087889038       0x10 arch/arm/cpu/armv7/start.o
 .rel.text.eth_register
                0x0000000087889048       0x18 arch/arm/cpu/armv7/start.o
 .rel.text.eth_unregister
                0x0000000087889060       0x10 arch/arm/cpu/armv7/start.o
 .rel.text.eth_initialize
                0x0000000087889070       0x78 arch/arm/cpu/armv7/start.o
 .rel.text.eth_init
                0x00000000878890e8       0x10 arch/arm/cpu/armv7/start.o
 .rel.text.eth_halt
                0x00000000878890f8        0x8 arch/arm/cpu/armv7/start.o
 .rel.text.eth_send
                0x0000000087889100        0x8 arch/arm/cpu/armv7/start.o
 .rel.text.eth_rx
                0x0000000087889108        0x8 arch/arm/cpu/armv7/start.o
 .rel.text.eth_env_set_enetaddr
                0x0000000087889110        0x8 arch/arm/cpu/armv7/start.o
 .rel.text.eth_env_get_enetaddr_by_index
                0x0000000087889118       0x10 arch/arm/cpu/armv7/start.o
 .rel.text.eth_env_set_enetaddr_by_index
                0x0000000087889128       0x10 arch/arm/cpu/armv7/start.o
 .rel.text.eth_mac_skip
                0x0000000087889138       0x10 arch/arm/cpu/armv7/start.o
 .rel.text.eth_get_name
                0x0000000087889148       0x10 arch/arm/cpu/armv7/start.o
 .rel.text.eth_current_changed
                0x0000000087889158       0x20 arch/arm/cpu/armv7/start.o
 .rel.text.eth_try_another
                0x0000000087889178       0x28 arch/arm/cpu/armv7/start.o
 .rel.text.eth_set_current
                0x00000000878891a0       0x20 arch/arm/cpu/armv7/start.o
 .rel.text.net_clear_handlers
                0x00000000878891c0       0x20 arch/arm/cpu/armv7/start.o
 .rel.text.start_again_timeout_handler
                0x00000000878891e0        0x8 arch/arm/cpu/armv7/start.o
 .rel.text.on_ipaddr
                0x00000000878891e8        0x8 arch/arm/cpu/armv7/start.o
 .rel.text.on_gatewayip
                0x00000000878891f0        0x8 arch/arm/cpu/armv7/start.o
 .rel.text.on_netmask
                0x00000000878891f8        0x8 arch/arm/cpu/armv7/start.o
 .rel.text.on_serverip
                0x0000000087889200        0x8 arch/arm/cpu/armv7/start.o
 .rel.text.net_init_loop
                0x0000000087889208       0x10 arch/arm/cpu/armv7/start.o
 .rel.text.net_auto_load
                0x0000000087889218       0x18 arch/arm/cpu/armv7/start.o
 .rel.text.net_init
                0x0000000087889230       0x20 arch/arm/cpu/armv7/start.o
 .rel.text.net_start_again
                0x0000000087889250       0x78 arch/arm/cpu/armv7/start.o
 .rel.text.net_loop
                0x00000000878892c8      0x180 arch/arm/cpu/armv7/start.o
 .rel.text.net_set_udp_handler
                0x0000000087889448       0x10 arch/arm/cpu/armv7/start.o
 .rel.text.net_get_arp_handler
                0x0000000087889458        0x8 arch/arm/cpu/armv7/start.o
 .rel.text.net_set_timeout_handler
                0x0000000087889460       0x18 arch/arm/cpu/armv7/start.o
 .rel.text.net_process_received_packet
                0x0000000087889478       0x40 arch/arm/cpu/armv7/start.o
 .rel.text.net_eth_hdr_size
                0x00000000878894b8        0x8 arch/arm/cpu/armv7/start.o
 .rel.text.net_set_ether
                0x00000000878894c0       0x10 arch/arm/cpu/armv7/start.o
 .rel.text.net_update_ether
                0x00000000878894d0        0x8 arch/arm/cpu/armv7/start.o
 .rel.text.net_set_ip_header
                0x00000000878894d8        0x8 arch/arm/cpu/armv7/start.o
 .rel.text.net_set_udp_header
                0x00000000878894e0        0x8 arch/arm/cpu/armv7/start.o
 .rel.text.net_send_udp_packet
                0x00000000878894e8       0x40 arch/arm/cpu/armv7/start.o
 .rel.text.on_bootfile
                0x0000000087889528        0x8 arch/arm/cpu/armv7/start.o
 .rel.text.ip_to_string
                0x0000000087889530        0x8 arch/arm/cpu/armv7/start.o
 .rel.text.on_nvlan
                0x0000000087889538        0x8 arch/arm/cpu/armv7/start.o
 .rel.text.on_vlan
                0x0000000087889540        0x8 arch/arm/cpu/armv7/start.o
 .rel.text.rpc_lookup_reply
                0x0000000087889548       0x18 arch/arm/cpu/armv7/start.o
 .rel.text.nfs_mount_reply
                0x0000000087889560       0x18 arch/arm/cpu/armv7/start.o
 .rel.text.nfs_umountall_reply
                0x0000000087889578       0x18 arch/arm/cpu/armv7/start.o
 .rel.text.nfs_lookup_reply
                0x0000000087889590       0x30 arch/arm/cpu/armv7/start.o
 .rel.text.nfs_readlink_reply
                0x00000000878895c0       0x20 arch/arm/cpu/armv7/start.o
 .rel.text.rpc_req
                0x00000000878895e0       0x40 arch/arm/cpu/armv7/start.o
 .rel.text.nfs_read_req
                0x0000000087889620       0x18 arch/arm/cpu/armv7/start.o
 .rel.text.nfs_read_reply.isra.0
                0x0000000087889638       0x30 arch/arm/cpu/armv7/start.o
 .rel.text.nfs_readlink_req
                0x0000000087889668       0x18 arch/arm/cpu/armv7/start.o
 .rel.text.nfs_lookup_req
                0x0000000087889680       0x10 arch/arm/cpu/armv7/start.o
 .rel.text.nfs_umountall_req
                0x0000000087889690       0x10 arch/arm/cpu/armv7/start.o
 .rel.text.nfs_send
                0x00000000878896a0       0x68 arch/arm/cpu/armv7/start.o
 .rel.text.nfs_handler
                0x0000000087889708       0xa8 arch/arm/cpu/armv7/start.o
 .rel.text.nfs_timeout_handler
                0x00000000878897b0       0x20 arch/arm/cpu/armv7/start.o
 .rel.text.nfs_start
                0x00000000878897d0       0x88 arch/arm/cpu/armv7/start.o
 .rel.text.ping_timeout_handler
                0x0000000087889858        0x8 arch/arm/cpu/armv7/start.o
 .rel.text.ping_start
                0x0000000087889860       0x58 arch/arm/cpu/armv7/start.o
 .rel.text.ping_receive
                0x00000000878898b8       0x18 arch/arm/cpu/armv7/start.o
 .rel.text.tftp_send
                0x00000000878898d0       0xb8 arch/arm/cpu/armv7/start.o
 .rel.text.tftp_handler
                0x0000000087889988       0xd0 arch/arm/cpu/armv7/start.o
 .rel.text.tftp_timeout_handler
                0x0000000087889a58       0x40 arch/arm/cpu/armv7/start.o
 .rel.text.tftp_start
                0x0000000087889a98      0x148 arch/arm/cpu/armv7/start.o
 .rel.u_boot_list_2_env_clbk_2_ethaddr
                0x0000000087889be0       0x10 arch/arm/cpu/armv7/start.o
 .rel.u_boot_list_2_env_clbk_2_bootfile
                0x0000000087889bf0       0x10 arch/arm/cpu/armv7/start.o
 .rel.u_boot_list_2_env_clbk_2_gatewayip
                0x0000000087889c00       0x10 arch/arm/cpu/armv7/start.o
 .rel.u_boot_list_2_env_clbk_2_ipaddr
                0x0000000087889c10       0x10 arch/arm/cpu/armv7/start.o
 .rel.u_boot_list_2_env_clbk_2_netmask
                0x0000000087889c20       0x10 arch/arm/cpu/armv7/start.o
 .rel.u_boot_list_2_env_clbk_2_nvlan
                0x0000000087889c30       0x10 arch/arm/cpu/armv7/start.o
 .rel.u_boot_list_2_env_clbk_2_serverip
                0x0000000087889c40       0x10 arch/arm/cpu/armv7/start.o
 .rel.u_boot_list_2_env_clbk_2_vlan
                0x0000000087889c50       0x10 arch/arm/cpu/armv7/start.o
 .rel.text.do_dm
                0x0000000087889c60        0x8 arch/arm/cpu/armv7/start.o
 .rel.data.test_commands
                0x0000000087889c68       0x60 arch/arm/cpu/armv7/start.o
 .rel.u_boot_list_2_cmd_2_dm
                0x0000000087889cc8       0x20 arch/arm/cpu/armv7/start.o

.rel_dyn_end    0x0000000087889ce8        0x0
 *(.__rel_dyn_end)
 .__rel_dyn_end
                0x0000000087889ce8        0x0 arch/arm/lib/built-in.o

.end            0x0000000087889ce8        0x0
 *(.__end)
 .__end         0x0000000087889ce8        0x0 arch/arm/lib/built-in.o
                0x0000000087889ce8                _image_binary_end = .
                0x000000008788a000                . = ALIGN (0x1000)

.mmutable
 *(.mmutable)

.bss_start      0x000000008787e6c8        0x0
 *(.__bss_start)
 .__bss_start   0x000000008787e6c8        0x0 arch/arm/lib/built-in.o
                0x000000008787e6c8                __bss_start
                0x000000008787e6c8                __bss_base = .

.bss            0x000000008787e6c8    0x3474c
 *(.bss*)
 .bss.params    0x000000008787e6c8        0x4 arch/arm/lib/built-in.o
 .bss.modes     0x000000008787e6cc        0x8 arch/arm/mach-imx/built-in.o
 .bss.bootefi_device_path
                0x000000008787e6d4        0x4 cmd/built-in.o
 .bss.bootefi_image_path
                0x000000008787e6d8        0x4 cmd/built-in.o
 .bss.efi_obj_list_initalized
                0x000000008787e6dc        0x1 cmd/built-in.o
 *fill*         0x000000008787e6dd        0x3 
 .bss.data.8941
                0x000000008787e6e0      0x400 cmd/built-in.o
 .bss.working_fdt
                0x000000008787eae0        0x4 cmd/built-in.o
                0x000000008787eae0                working_fdt
 .bss.i2c_dp_last_addr
                0x000000008787eae4        0x4 cmd/built-in.o
 .bss.i2c_dp_last_alen
                0x000000008787eae8        0x4 cmd/built-in.o
 .bss.i2c_dp_last_chip
                0x000000008787eaec        0x4 cmd/built-in.o
 .bss.i2c_mm_last_addr
                0x000000008787eaf0        0x4 cmd/built-in.o
 .bss.i2c_mm_last_alen
                0x000000008787eaf4        0x4 cmd/built-in.o
 .bss.i2c_mm_last_chip
                0x000000008787eaf8        0x4 cmd/built-in.o
 .bss.a_b       0x000000008787eafc       0x18 cmd/built-in.o
 .bss.bin_start_address
                0x000000008787eb14        0x4 cmd/built-in.o
 .bss.his_eol   0x000000008787eb18        0x1 cmd/built-in.o
 .bss.his_pad_char
                0x000000008787eb19        0x1 cmd/built-in.o
 *fill*         0x000000008787eb1a        0x2 
 .bss.his_pad_count
                0x000000008787eb1c        0x4 cmd/built-in.o
 .bss.his_quote
                0x000000008787eb20        0x1 cmd/built-in.o
 *fill*         0x000000008787eb21        0x3 
 .bss.k_data_escape
                0x000000008787eb24        0x4 cmd/built-in.o
 .bss.k_data_escape_saved
                0x000000008787eb28        0x4 cmd/built-in.o
 .bss.os_data_addr
                0x000000008787eb2c        0x4 cmd/built-in.o
 .bss.os_data_addr_saved
                0x000000008787eb30        0x4 cmd/built-in.o
 .bss.os_data_char
                0x000000008787eb34        0x4 cmd/built-in.o
 .bss.os_data_init
                0x000000008787eb38        0x4 cmd/built-in.o
 .bss.os_data_state
                0x000000008787eb3c        0x4 cmd/built-in.o
 .bss.os_data_state_saved
                0x000000008787eb40        0x4 cmd/built-in.o
 .bss.send_parms
                0x000000008787eb44       0x14 cmd/built-in.o
 .bss.send_ptr  0x000000008787eb58        0x4 cmd/built-in.o
 .bss.base_address
                0x000000008787eb5c        0x4 cmd/built-in.o
 .bss.dp_last_addr
                0x000000008787eb60        0x4 cmd/built-in.o
 .bss.dp_last_size
                0x000000008787eb64        0x4 cmd/built-in.o
 .bss.mm_last_addr
                0x000000008787eb68        0x4 cmd/built-in.o
 .bss.mm_last_size
                0x000000008787eb6c        0x4 cmd/built-in.o
 .bss.last_addr_hi
                0x000000008787eb70        0x8 cmd/built-in.o
 .bss.last_addr_lo
                0x000000008787eb78        0x8 cmd/built-in.o
 .bss.last_data
                0x000000008787eb80        0x8 cmd/built-in.o
 .bss.last_mask
                0x000000008787eb88        0x4 cmd/built-in.o
 .bss.last_op   0x000000008787eb8c        0x4 cmd/built-in.o
 .bss.last_reg_hi
                0x000000008787eb90        0x8 cmd/built-in.o
 .bss.last_reg_lo
                0x000000008787eb98        0x8 cmd/built-in.o
 .bss.last_devad_hi
                0x000000008787eba0        0x4 cmd/built-in.o
 .bss.last_devad_lo
                0x000000008787eba4        0x4 cmd/built-in.o
 .bss.ums       0x000000008787eba8        0x4 cmd/built-in.o
 .bss.ums_count
                0x000000008787ebac        0x4 cmd/built-in.o
 .bss.buf.9288  0x000000008787ebb0       0x28 common/built-in.o
 .bss.do_repeat
                0x000000008787ebd8        0x4 common/built-in.o
 .bss.flag_repeat
                0x000000008787ebdc        0x4 common/built-in.o
 .bss.ifs       0x000000008787ebe0        0x4 common/built-in.o
 .bss.last_return_code
                0x000000008787ebe4        0x4 common/built-in.o
 .bss.map       0x000000008787ebe8      0x100 common/built-in.o
 .bss.the_command.9088
                0x000000008787ece8      0x801 common/built-in.o
 *fill*         0x000000008787f4e9        0x3 
 .bss.top_vars  0x000000008787f4ec        0x4 common/built-in.o
 .bss.stored_bootdelay
                0x000000008787f4f0        0x4 common/built-in.o
 .bss.monitor_flash_len
                0x000000008787f4f4        0x4 common/built-in.o
                0x000000008787f4f4                monitor_flash_len
 .bss.images    0x000000008787f4f8      0x164 common/built-in.o
                0x000000008787f4f8                images
 .bss.current_mii
                0x000000008787f65c        0x4 common/built-in.o
 .bss.mii_devs  0x000000008787f660        0x8 common/built-in.o
 .bss.asynch_allowed
                0x000000008787f668        0x4 common/built-in.o
 .bss.dev_index
                0x000000008787f66c        0x4 common/built-in.o
 *fill*         0x000000008787f670       0x10 
 .bss.usb_dev   0x000000008787f680    0x13000 common/built-in.o
 .bss.usb_started
                0x0000000087892680        0x1 common/built-in.o
                0x0000000087892680                usb_started
 *fill*         0x0000000087892681        0x3 
 .bss.hub_dev   0x0000000087892684      0x440 common/built-in.o
 .bss.running.11160
                0x0000000087892ac4        0x4 common/built-in.o
 .bss.usb_hub_index
                0x0000000087892ac8        0x4 common/built-in.o
 .bss.CBWTag    0x0000000087892acc        0x4 common/built-in.o
 *fill*         0x0000000087892ad0       0x30 
 .bss.usb_ccb   0x0000000087892b00       0xc0 common/built-in.o
 .bss.usb_dev_desc
                0x0000000087892bc0      0x3b8 common/built-in.o
 .bss.usb_max_devs
                0x0000000087892f78        0x4 common/built-in.o
 .bss.usb_stor  0x0000000087892f7c      0x188 common/built-in.o
 .bss.console_buffer
                0x0000000087893104      0x801 common/built-in.o
                0x0000000087893104                console_buffer
 *fill*         0x0000000087893905        0x3 
 .bss.hist_add_idx
                0x0000000087893908        0x4 common/built-in.o
 .bss.hist_lines
                0x000000008789390c     0xa014 common/built-in.o
 .bss.hist_list
                0x000000008789d920       0x50 common/built-in.o
 .bss.hist_max  0x000000008789d970        0x4 common/built-in.o
 .bss.hist_num  0x000000008789d974        0x4 common/built-in.o
 .bss.initted.8954
                0x000000008789d978        0x4 common/built-in.o
 .bss.ctrlc_disabled
                0x000000008789d97c        0x4 common/built-in.o
 .bss.ctrlc_was_pressed
                0x000000008789d980        0x4 common/built-in.o
 .bss.current_mallinfo
                0x000000008789d984       0x28 common/built-in.o
 .bss.max_sbrked_mem
                0x000000008789d9ac        0x4 common/built-in.o
 .bss.max_total_mem
                0x000000008789d9b0        0x4 common/built-in.o
 .bss.mem_malloc_brk
                0x000000008789d9b4        0x4 common/built-in.o
                0x000000008789d9b4                mem_malloc_brk
 .bss.mem_malloc_end
                0x000000008789d9b8        0x4 common/built-in.o
                0x000000008789d9b8                mem_malloc_end
 .bss.mem_malloc_start
                0x000000008789d9bc        0x4 common/built-in.o
                0x000000008789d9bc                mem_malloc_start
 .bss.top_pad   0x000000008789d9c0        0x4 common/built-in.o
 .bss.devs      0x000000008789d9c4       0x4c common/built-in.o
 .bss.stdio_devices
                0x000000008789da10        0xc common/built-in.o
                0x000000008789da10                stdio_devices
 .bss.tmp_buf   0x000000008789da1c      0x801 common/built-in.o
 .bss.tmp_buf.8845
                0x000000008789e21d      0x200 common/built-in.o
 *fill*         0x000000008789e41d        0x3 
 .bss.xyz       0x000000008789e420      0x434 common/built-in.o
 .bss.name.9557
                0x000000008789e854       0x25 disk/built-in.o
 *fill*         0x000000008789e879        0x3 
 .bss.initialized.11260
                0x000000008789e87c        0x4 drivers/built-in.o
 .bss.mmc_devices
                0x000000008789e880        0x8 drivers/built-in.o
 .bss.bgx       0x000000008789e888        0x4 drivers/built-in.o
 .bss.cfb_do_flush_cache
                0x000000008789e88c        0x4 drivers/built-in.o
 .bss.console_col
                0x000000008789e890        0x4 drivers/built-in.o
 .bss.console_row
                0x000000008789e894        0x4 drivers/built-in.o
 .bss.cursor_state
                0x000000008789e898        0x4 drivers/built-in.o
 .bss.eorx      0x000000008789e89c        0x4 drivers/built-in.o
 .bss.fgx       0x000000008789e8a0        0x4 drivers/built-in.o
 .bss.old_col   0x000000008789e8a4        0x4 drivers/built-in.o
 .bss.old_row   0x000000008789e8a8        0x4 drivers/built-in.o
 .bss.pGD       0x000000008789e8ac        0x4 drivers/built-in.o
 .bss.video_console_address
                0x000000008789e8b0        0x4 drivers/built-in.o
 .bss.video_fb_address
                0x000000008789e8b4        0x4 drivers/built-in.o
 .bss.video_logo_xpos
                0x000000008789e8b8        0x4 drivers/built-in.o
 .bss.video_logo_ypos
                0x000000008789e8bc        0x4 drivers/built-in.o
 .bss.depth     0x000000008789e8c0        0x4 drivers/built-in.o
 .bss.fbmode    0x000000008789e8c4       0x38 drivers/built-in.o
 .bss.panel     0x000000008789e8fc       0x90 drivers/built-in.o
 .bss.setup     0x000000008789e98c        0x4 drivers/built-in.o
 .bss.serial_current
                0x000000008789e990        0x4 drivers/serial/built-in.o
 .bss.serial_devices
                0x000000008789e994        0x4 drivers/serial/built-in.o
 .bss.usb_eth   0x000000008789e998      0x1a4 drivers/usb/eth/built-in.o
 .bss.usb_max_eth_dev
                0x000000008789eb3c        0x4 drivers/usb/eth/built-in.o
 .bss.curr_eth_dev
                0x000000008789eb40        0x4 drivers/usb/eth/built-in.o
 .bss.epnum     0x000000008789eb44        0x4 drivers/usb/gadget/built-in.o
 .bss.composite
                0x000000008789eb48        0x4 drivers/usb/gadget/built-in.o
 .bss.g_dnl_detach_request
                0x000000008789eb4c        0x1 drivers/usb/gadget/built-in.o
 .bss.g_dnl_serial
                0x000000008789eb4d      0x100 drivers/usb/gadget/built-in.o
 *fill*         0x000000008789ec4d        0x3 
 .bss.controller_index
                0x000000008789ec50        0x4 drivers/usb/gadget/built-in.o
 .bss.state.10055
                0x000000008789ec54        0x4 drivers/usb/gadget/built-in.o
 .bss.the_fsg_common
                0x000000008789ec58        0x4 drivers/usb/gadget/built-in.o
 .bss.ums       0x000000008789ec5c        0x4 drivers/usb/gadget/built-in.o
 .bss.ums_count
                0x000000008789ec60        0x4 drivers/usb/gadget/built-in.o
 .bss.unknown.10311
                0x000000008789ec64       0x10 drivers/usb/gadget/built-in.o
 .bss.boot_dev_part.12447
                0x000000008789ec74       0x20 drivers/usb/gadget/built-in.o
 .bss.download_bytes
                0x000000008789ec94        0x4 drivers/usb/gadget/built-in.o
 .bss.download_size
                0x000000008789ec98        0x4 drivers/usb/gadget/built-in.o
 .bss.fastboot_func
                0x000000008789ec9c        0x4 drivers/usb/gadget/built-in.o
 .bss.fb_response_str
                0x000000008789eca0        0x4 drivers/usb/gadget/built-in.o
 .bss.g_a_cmd_buff
                0x000000008789eca4       0x40 drivers/usb/gadget/built-in.o
 .bss.g_pcount  0x000000008789ece4        0x4 drivers/usb/gadget/built-in.o
                0x000000008789ece4                g_pcount
 .bss.g_ptable  0x000000008789ece8      0x700 drivers/usb/gadget/built-in.o
                0x000000008789ece8                g_ptable
 *fill*         0x000000008789f3e8       0x18 
 .bss.ehcic     0x000000008789f400      0x300 drivers/usb/host/built-in.o
 .bss.callback_list
                0x000000008789f700        0x4 env/built-in.o
 .bss.flags_list
                0x000000008789f704        0x4 env/built-in.o
 .bss.env_mmc_orig_hwpart
                0x000000008789f708        0x1 env/built-in.o
 *fill*         0x000000008789f709        0x3 
 .bss.fs_dev_desc
                0x000000008789f70c        0x4 fs/built-in.o
 .bss.fs_dev_part
                0x000000008789f710        0x4 fs/built-in.o
 .bss.fs_partition
                0x000000008789f714       0x54 fs/built-in.o
 .bss.fs_type   0x000000008789f768        0x4 fs/built-in.o
 .bss.cur_dev   0x000000008789f76c        0x4 fs/built-in.o
 .bss.cur_part_info
                0x000000008789f770       0x54 fs/built-in.o
 *fill*         0x000000008789f7c4       0x3c 
 .bss.get_contents_vfatname_block
                0x000000008789f800    0x10000 fs/built-in.o
                0x000000008789f800                get_contents_vfatname_block
 .bss.app_gd    0x00000000878af800        0x4 lib/built-in.o
 *fill*         0x00000000878af804        0x4 
 .bss.efi_events
                0x00000000878af808      0x280 lib/built-in.o
 .bss.efi_gd    0x00000000878afa88        0x4 lib/built-in.o
 .bss.entry_count
                0x00000000878afa8c        0x4 lib/built-in.o
 .bss.mono.10966
                0x00000000878afa90        0x8 lib/built-in.o
 .bss.ret.10881
                0x00000000878afa98        0x4 lib/built-in.o
 .bss.console_size_queried
                0x00000000878afa9c        0x1 lib/built-in.o
 *fill*         0x00000000878afa9d        0x3 
 .bss.console_timer_event
                0x00000000878afaa0        0x4 lib/built-in.o
 .bss.rs        0x00000000878afaa4        0x4 lib/built-in.o
 .bss.watchdog_timer_event
                0x00000000878afaa8        0x4 lib/built-in.o
 .bss.dhcp_ack  0x00000000878afaac        0x4 lib/built-in.o
 .bss.network_timer_event
                0x00000000878afab0        0x4 lib/built-in.o
 .bss.new_rx_packet
                0x00000000878afab4        0x1 lib/built-in.o
 *fill*         0x00000000878afab5        0x3 
 .bss.new_tx_packet
                0x00000000878afab8        0x4 lib/built-in.o
 .bss.wait_for_packet
                0x00000000878afabc        0x4 lib/built-in.o
 .bss.errno     0x00000000878afac0        0x4 lib/built-in.o
                0x00000000878afac0                errno
 .bss.local.10297
                0x00000000878afac4       0x16 lib/built-in.o
 *fill*         0x00000000878afada        0x2 
 .bss.arp_tx_packet
                0x00000000878afadc        0x4 net/built-in.o
 .bss.arp_tx_packet_buf
                0x00000000878afae0      0x640 net/built-in.o
 .bss.arp_wait_packet_ethaddr
                0x00000000878b0120        0x4 net/built-in.o
                0x00000000878b0120                arp_wait_packet_ethaddr
 .bss.arp_wait_timer_start
                0x00000000878b0124        0x4 net/built-in.o
                0x00000000878b0124                arp_wait_timer_start
 .bss.arp_wait_try
                0x00000000878b0128        0x4 net/built-in.o
                0x00000000878b0128                arp_wait_try
 .bss.arp_wait_tx_packet_size
                0x00000000878b012c        0x4 net/built-in.o
                0x00000000878b012c                arp_wait_tx_packet_size
 .bss.net_arp_wait_packet_ip
                0x00000000878b0130        0x4 net/built-in.o
                0x00000000878b0130                net_arp_wait_packet_ip
 .bss.net_arp_wait_reply_ip
                0x00000000878b0134        0x4 net/built-in.o
 .bss.bootp_ids
                0x00000000878b0138       0x10 net/built-in.o
                0x00000000878b0138                bootp_ids
 .bss.bootp_num_ids
                0x00000000878b0148        0x4 net/built-in.o
                0x00000000878b0148                bootp_num_ids
 .bss.bootp_start
                0x00000000878b014c        0x4 net/built-in.o
                0x00000000878b014c                bootp_start
 .bss.bootp_timeout
                0x00000000878b0150        0x4 net/built-in.o
                0x00000000878b0150                bootp_timeout
 .bss.bootp_try
                0x00000000878b0154        0x4 net/built-in.o
                0x00000000878b0154                bootp_try
 .bss.dhcp_leasetime
                0x00000000878b0158        0x4 net/built-in.o
 .bss.dhcp_option_overload
                0x00000000878b015c        0x1 net/built-in.o
 *fill*         0x00000000878b015d        0x3 
 .bss.dhcp_server_ip
                0x00000000878b0160        0x4 net/built-in.o
 .bss.dhcp_state
                0x00000000878b0164        0x4 net/built-in.o
 .bss.net_hostname
                0x00000000878b0168       0x20 net/built-in.o
                0x00000000878b0168                net_hostname
 .bss.net_nis_domain
                0x00000000878b0188       0x20 net/built-in.o
                0x00000000878b0188                net_nis_domain
 .bss.net_root_path
                0x00000000878b01a8       0x40 net/built-in.o
                0x00000000878b01a8                net_root_path
 .bss.time_taken_max
                0x00000000878b01e8        0x4 net/built-in.o
 .bss.eth_current
                0x00000000878b01ec        0x4 net/built-in.o
                0x00000000878b01ec                eth_current
 .bss.eth_devices
                0x00000000878b01f0        0x4 net/built-in.o
 .bss.index.9716
                0x00000000878b01f4        0x4 net/built-in.o
 .bss.act.10765
                0x00000000878b01f8        0x4 net/built-in.o
 .bss.env_changed_id.10766
                0x00000000878b01fc        0x4 net/built-in.o
 .bss.first_failed.10760
                0x00000000878b0200        0x4 net/built-in.o
 .bss.arp_packet_handler
                0x00000000878b0204        0x4 net/built-in.o
 .bss.net_boot_file_expected_size_in_blocks
                0x00000000878b0208        0x4 net/built-in.o
                0x00000000878b0208                net_boot_file_expected_size_in_blocks
 .bss.net_boot_file_name
                0x00000000878b020c      0x400 net/built-in.o
                0x00000000878b020c                net_boot_file_name
 .bss.net_boot_file_size
                0x00000000878b060c        0x4 net/built-in.o
                0x00000000878b060c                net_boot_file_size
 .bss.net_dev_exists
                0x00000000878b0610        0x4 net/built-in.o
 .bss.net_dns_server
                0x00000000878b0614        0x4 net/built-in.o
                0x00000000878b0614                net_dns_server
 .bss.net_ethaddr
                0x00000000878b0618        0x6 net/built-in.o
                0x00000000878b0618                net_ethaddr
 *fill*         0x00000000878b061e        0x2 
 .bss.net_gateway
                0x00000000878b0620        0x4 net/built-in.o
                0x00000000878b0620                net_gateway
 .bss.net_ip    0x00000000878b0624        0x4 net/built-in.o
                0x00000000878b0624                net_ip
 .bss.net_ip_id
                0x00000000878b0628        0x4 net/built-in.o
 .bss.net_netmask
                0x00000000878b062c        0x4 net/built-in.o
                0x00000000878b062c                net_netmask
 .bss.net_null_ethaddr
                0x00000000878b0630        0x6 net/built-in.o
                0x00000000878b0630                net_null_ethaddr
 .bss.net_pkt_buf
                0x00000000878b0636     0x1e40 net/built-in.o
 *fill*         0x00000000878b2476        0x2 
 .bss.net_restart_wrap
                0x00000000878b2478        0x4 net/built-in.o
                0x00000000878b2478                net_restart_wrap
 .bss.net_restarted
                0x00000000878b247c        0x4 net/built-in.o
 .bss.net_rx_packet
                0x00000000878b2480        0x4 net/built-in.o
                0x00000000878b2480                net_rx_packet
 .bss.net_rx_packet_len
                0x00000000878b2484        0x4 net/built-in.o
                0x00000000878b2484                net_rx_packet_len
 .bss.net_rx_packets
                0x00000000878b2488       0x10 net/built-in.o
                0x00000000878b2488                net_rx_packets
 .bss.net_server_ethaddr
                0x00000000878b2498        0x6 net/built-in.o
                0x00000000878b2498                net_server_ethaddr
 *fill*         0x00000000878b249e        0x2 
 .bss.net_server_ip
                0x00000000878b24a0        0x4 net/built-in.o
                0x00000000878b24a0                net_server_ip
 .bss.net_state
                0x00000000878b24a4        0x4 net/built-in.o
                0x00000000878b24a4                net_state
 .bss.net_try_count
                0x00000000878b24a8        0x4 net/built-in.o
 .bss.net_tx_packet
                0x00000000878b24ac        0x4 net/built-in.o
                0x00000000878b24ac                net_tx_packet
 .bss.push_packet
                0x00000000878b24b0        0x4 net/built-in.o
                0x00000000878b24b0                push_packet
 .bss.time_delta
                0x00000000878b24b4        0x4 net/built-in.o
 .bss.time_handler
                0x00000000878b24b8        0x4 net/built-in.o
 .bss.time_start
                0x00000000878b24bc        0x8 net/built-in.o
 .bss.udp_packet_handler
                0x00000000878b24c4        0x4 net/built-in.o
 .bss.dirfh     0x00000000878b24c8       0x20 net/built-in.o
 .bss.filefh    0x00000000878b24e8       0x40 net/built-in.o
 .bss.filefh3_length
                0x00000000878b2528        0x4 net/built-in.o
 .bss.fs_mounted
                0x00000000878b252c        0x4 net/built-in.o
 .bss.nfs_download_state
                0x00000000878b2530        0x4 net/built-in.o
 .bss.nfs_filename
                0x00000000878b2534        0x4 net/built-in.o
 .bss.nfs_len   0x00000000878b2538        0x4 net/built-in.o
 .bss.nfs_our_port
                0x00000000878b253c        0x4 net/built-in.o
 .bss.nfs_path  0x00000000878b2540        0x4 net/built-in.o
 .bss.nfs_path_buff
                0x00000000878b2544      0x800 net/built-in.o
 .bss.nfs_server_ip
                0x00000000878b2d44        0x4 net/built-in.o
 .bss.nfs_server_mount_port
                0x00000000878b2d48        0x4 net/built-in.o
 .bss.nfs_server_port
                0x00000000878b2d4c        0x4 net/built-in.o
 .bss.nfs_state
                0x00000000878b2d50        0x4 net/built-in.o
 .bss.nfs_timeout_count
                0x00000000878b2d54        0x4 net/built-in.o
 .bss.rpc_id    0x00000000878b2d58        0x4 net/built-in.o
 .bss.net_ping_ip
                0x00000000878b2d5c        0x4 net/built-in.o
                0x00000000878b2d5c                net_ping_ip
 .bss.ping_seq_number
                0x00000000878b2d60        0x2 net/built-in.o
 .bss.default_filename
                0x00000000878b2d62        0xd net/built-in.o
 *fill*         0x00000000878b2d6f        0x1 
 .bss.tftp_block_wrap
                0x00000000878b2d70        0x4 net/built-in.o
 .bss.tftp_block_wrap_offset
                0x00000000878b2d74        0x4 net/built-in.o
 .bss.tftp_cur_block
                0x00000000878b2d78        0x4 net/built-in.o
 .bss.tftp_filename
                0x00000000878b2d7c       0x80 net/built-in.o
 .bss.tftp_our_port
                0x00000000878b2dfc        0x4 net/built-in.o
 .bss.tftp_prev_block
                0x00000000878b2e00        0x4 net/built-in.o
 .bss.tftp_remote_ip
                0x00000000878b2e04        0x4 net/built-in.o
 .bss.tftp_remote_port
                0x00000000878b2e08        0x4 net/built-in.o
 .bss.tftp_state
                0x00000000878b2e0c        0x4 net/built-in.o
 .bss.timeout_count
                0x00000000878b2e10        0x4 net/built-in.o
                0x00000000878b2e14                . = ALIGN (0x4)
                0x00000000878b2e14                __bss_limit = .

.bss_end        0x00000000878b2e14        0x0
 *(.__bss_end)
 .__bss_end     0x00000000878b2e14        0x0 arch/arm/lib/built-in.o
                0x00000000878b2e14                __bss_end

.dynsym         0x0000000087889ce8       0x30
 *(.dynsym)
 .dynsym        0x0000000087889ce8       0x30 arch/arm/cpu/armv7/start.o

.dynbss         0x0000000087889d18        0x0
 *(.dynbss)
 .dynbss        0x0000000087889d18        0x0 arch/arm/cpu/armv7/start.o

.dynstr         0x0000000087889d18        0x1
 *(.dynstr*)
 .dynstr        0x0000000087889d18        0x1 arch/arm/cpu/armv7/start.o

.dynamic        0x0000000087889d1c       0x90
 *(.dynamic*)
 .dynamic       0x0000000087889d1c       0x90 arch/arm/cpu/armv7/start.o
                0x0000000087889d1c                _DYNAMIC

.plt            0x0000000087889dac        0x0
 *(.plt*)
 .plt           0x0000000087889dac        0x0 arch/arm/cpu/armv7/start.o

.interp
 *(.interp*)

.gnu.hash       0x0000000087889dac       0x18
 *(.gnu.hash)
 .gnu.hash      0x0000000087889dac       0x18 arch/arm/cpu/armv7/start.o

.gnu            0x0000000087889dc4        0x0
 *(.gnu*)
 .gnu.version_d
                0x0000000087889dc4        0x0 arch/arm/cpu/armv7/start.o
 .gnu.version   0x0000000087889dc4        0x0 arch/arm/cpu/armv7/start.o
 .gnu.version_r
                0x0000000087889dc4        0x0 arch/arm/cpu/armv7/start.o

.ARM.exidx
 *(.ARM.exidx*)

.gnu.linkonce.armexidx
 *(.gnu.linkonce.armexidx.*)
LOAD arch/arm/cpu/armv7/start.o
START GROUP
LOAD arch/arm/cpu/built-in.o
LOAD arch/arm/cpu/armv7/built-in.o
LOAD arch/arm/lib/built-in.o
LOAD arch/arm/mach-imx/built-in.o
LOAD board/technexion/pico-imx7d/built-in.o
LOAD cmd/built-in.o
LOAD common/built-in.o
LOAD disk/built-in.o
LOAD drivers/built-in.o
LOAD drivers/dma/built-in.o
LOAD drivers/gpio/built-in.o
LOAD drivers/i2c/built-in.o
LOAD drivers/mtd/built-in.o
LOAD drivers/mtd/onenand/built-in.o
LOAD drivers/mtd/spi/built-in.o
LOAD drivers/net/built-in.o
LOAD drivers/net/phy/built-in.o
LOAD drivers/pci/built-in.o
LOAD drivers/power/built-in.o
LOAD drivers/power/battery/built-in.o
LOAD drivers/power/domain/built-in.o
LOAD drivers/power/fuel_gauge/built-in.o
LOAD drivers/power/mfd/built-in.o
LOAD drivers/power/pmic/built-in.o
LOAD drivers/power/regulator/built-in.o
LOAD drivers/serial/built-in.o
LOAD drivers/spi/built-in.o
LOAD drivers/usb/cdns3/built-in.o
LOAD drivers/usb/common/built-in.o
LOAD drivers/usb/dwc3/built-in.o
LOAD drivers/usb/emul/built-in.o
LOAD drivers/usb/eth/built-in.o
LOAD drivers/usb/gadget/built-in.o
LOAD drivers/usb/gadget/udc/built-in.o
LOAD drivers/usb/host/built-in.o
LOAD drivers/usb/musb-new/built-in.o
LOAD drivers/usb/musb/built-in.o
LOAD drivers/usb/phy/built-in.o
LOAD drivers/usb/ulpi/built-in.o
LOAD env/built-in.o
LOAD fs/built-in.o
LOAD lib/built-in.o
LOAD net/built-in.o
LOAD test/built-in.o
LOAD test/dm/built-in.o
END GROUP
LOAD arch/arm/lib/eabi_compat.o
LOAD arch/arm/lib/lib.a
OUTPUT(u-boot elf32-littlearm)

.ARM.attributes
                0x0000000000000000       0x2d
 .ARM.attributes
                0x0000000000000000       0x1d arch/arm/cpu/armv7/start.o
 .ARM.attributes
                0x000000000000001d       0x2f arch/arm/cpu/armv7/built-in.o
 .ARM.attributes
                0x000000000000004c       0x29 arch/arm/lib/built-in.o
 .ARM.attributes
                0x0000000000000075       0x2d arch/arm/mach-imx/built-in.o
 .ARM.attributes
                0x00000000000000a2       0x2d board/technexion/pico-imx7d/built-in.o
 .ARM.attributes
                0x00000000000000cf       0x2d cmd/built-in.o
 .ARM.attributes
                0x00000000000000fc       0x2d common/built-in.o
 .ARM.attributes
                0x0000000000000129       0x2d disk/built-in.o
 .ARM.attributes
                0x0000000000000156       0x2d drivers/built-in.o
 .ARM.attributes
                0x0000000000000183       0x2d drivers/gpio/built-in.o
 .ARM.attributes
                0x00000000000001b0       0x2d drivers/i2c/built-in.o
 .ARM.attributes
                0x00000000000001dd       0x2d drivers/net/built-in.o
 .ARM.attributes
                0x000000000000020a       0x2d drivers/net/phy/built-in.o
 .ARM.attributes
                0x0000000000000237       0x2d drivers/power/built-in.o
 .ARM.attributes
                0x0000000000000264       0x2d drivers/power/pmic/built-in.o
 .ARM.attributes
                0x0000000000000291       0x2d drivers/serial/built-in.o
 .ARM.attributes
                0x00000000000002be       0x2d drivers/usb/eth/built-in.o
 .ARM.attributes
                0x00000000000002eb       0x2d drivers/usb/gadget/built-in.o
 .ARM.attributes
                0x0000000000000318       0x2d drivers/usb/host/built-in.o
 .ARM.attributes
                0x0000000000000345       0x2d env/built-in.o
 .ARM.attributes
                0x0000000000000372       0x2d fs/built-in.o
 .ARM.attributes
                0x000000000000039f       0x2d lib/built-in.o
 .ARM.attributes
                0x00000000000003cc       0x2d net/built-in.o
 .ARM.attributes
                0x00000000000003f9       0x2d test/dm/built-in.o
 .ARM.attributes
                0x0000000000000426       0x1d arch/arm/lib/lib.a(lib1funcs.o)
 .ARM.attributes
                0x0000000000000443       0x1d arch/arm/lib/lib.a(uldivmod.o)
 .ARM.attributes
                0x0000000000000460       0x2d arch/arm/lib/lib.a(div0.o)

.comment        0x0000000000000000       0x11
 .comment       0x0000000000000000       0x11 arch/arm/cpu/armv7/built-in.o
                                         0x7e (size before relaxing)
 .comment       0x0000000000000011       0xb4 arch/arm/lib/built-in.o
 .comment       0x0000000000000011      0x132 arch/arm/mach-imx/built-in.o
 .comment       0x0000000000000011       0x12 board/technexion/pico-imx7d/built-in.o
 .comment       0x0000000000000011      0x2ac cmd/built-in.o
 .comment       0x0000000000000011      0x276 common/built-in.o
 .comment       0x0000000000000011       0x36 disk/built-in.o
 .comment       0x0000000000000011      0x1c2 drivers/built-in.o
 .comment       0x0000000000000011       0x12 drivers/gpio/built-in.o
 .comment       0x0000000000000011       0x24 drivers/i2c/built-in.o
 .comment       0x0000000000000011       0x12 drivers/net/built-in.o
 .comment       0x0000000000000011       0x24 drivers/net/phy/built-in.o
 .comment       0x0000000000000011       0x24 drivers/power/built-in.o
 .comment       0x0000000000000011       0x12 drivers/power/pmic/built-in.o
 .comment       0x0000000000000011       0x24 drivers/serial/built-in.o
 .comment       0x0000000000000011       0x24 drivers/usb/eth/built-in.o
 .comment       0x0000000000000011       0x7e drivers/usb/gadget/built-in.o
 .comment       0x0000000000000011       0x24 drivers/usb/host/built-in.o
 .comment       0x0000000000000011       0x6c env/built-in.o
 .comment       0x0000000000000011       0x36 fs/built-in.o
 .comment       0x0000000000000011      0x44a lib/built-in.o
 .comment       0x0000000000000011       0xa2 net/built-in.o
 .comment       0x0000000000000011       0x12 test/dm/built-in.o
 .comment       0x0000000000000011       0x12 arch/arm/lib/lib.a(div0.o)

.note.GNU-stack
                0x0000000000000000        0x0
 .note.GNU-stack
                0x0000000000000000        0x0 arch/arm/cpu/armv7/built-in.o
 .note.GNU-stack
                0x0000000000000000        0x0 arch/arm/lib/built-in.o
 .note.GNU-stack
                0x0000000000000000        0x0 arch/arm/mach-imx/built-in.o
 .note.GNU-stack
                0x0000000000000000        0x0 board/technexion/pico-imx7d/built-in.o
 .note.GNU-stack
                0x0000000000000000        0x0 cmd/built-in.o
 .note.GNU-stack
                0x0000000000000000        0x0 common/built-in.o
 .note.GNU-stack
                0x0000000000000000        0x0 disk/built-in.o
 .note.GNU-stack
                0x0000000000000000        0x0 drivers/built-in.o
 .note.GNU-stack
                0x0000000000000000        0x0 drivers/gpio/built-in.o
 .note.GNU-stack
                0x0000000000000000        0x0 drivers/i2c/built-in.o
 .note.GNU-stack
                0x0000000000000000        0x0 drivers/net/built-in.o
 .note.GNU-stack
                0x0000000000000000        0x0 drivers/net/phy/built-in.o
 .note.GNU-stack
                0x0000000000000000        0x0 drivers/power/built-in.o
 .note.GNU-stack
                0x0000000000000000        0x0 drivers/power/pmic/built-in.o
 .note.GNU-stack
                0x0000000000000000        0x0 drivers/serial/built-in.o
 .note.GNU-stack
                0x0000000000000000        0x0 drivers/usb/eth/built-in.o
 .note.GNU-stack
                0x0000000000000000        0x0 drivers/usb/gadget/built-in.o
 .note.GNU-stack
                0x0000000000000000        0x0 drivers/usb/host/built-in.o
 .note.GNU-stack
                0x0000000000000000        0x0 env/built-in.o
 .note.GNU-stack
                0x0000000000000000        0x0 fs/built-in.o
 .note.GNU-stack
                0x0000000000000000        0x0 lib/built-in.o
 .note.GNU-stack
                0x0000000000000000        0x0 net/built-in.o
 .note.GNU-stack
                0x0000000000000000        0x0 test/dm/built-in.o
 .note.GNU-stack
                0x0000000000000000        0x0 arch/arm/lib/lib.a(div0.o)

.debug_line     0x0000000000000000    0x66eae
 .debug_line    0x0000000000000000      0x101 arch/arm/cpu/armv7/start.o
 .debug_line    0x0000000000000101     0x21e3 arch/arm/cpu/armv7/built-in.o
 .debug_line    0x00000000000022e4     0x3899 arch/arm/lib/built-in.o
 .debug_line    0x0000000000005b7d     0x6a51 arch/arm/mach-imx/built-in.o
 .debug_line    0x000000000000c5ce      0x9c5 board/technexion/pico-imx7d/built-in.o
 .debug_line    0x000000000000cf93     0xf384 cmd/built-in.o
 .debug_line    0x000000000001c317    0x11445 common/built-in.o
 .debug_line    0x000000000002d75c     0x1e0a disk/built-in.o
 .debug_line    0x000000000002f566     0xb201 drivers/built-in.o
 .debug_line    0x000000000003a767      0x6bb drivers/gpio/built-in.o
 .debug_line    0x000000000003ae22      0xee7 drivers/i2c/built-in.o
 .debug_line    0x000000000003bd09      0xa59 drivers/net/built-in.o
 .debug_line    0x000000000003c762     0x10e3 drivers/net/phy/built-in.o
 .debug_line    0x000000000003d845      0xd05 drivers/power/built-in.o
 .debug_line    0x000000000003e54a      0x5d3 drivers/power/pmic/built-in.o
 .debug_line    0x000000000003eb1d      0xd9b drivers/serial/built-in.o
 .debug_line    0x000000000003f8b8      0xf80 drivers/usb/eth/built-in.o
 .debug_line    0x0000000000040838     0x5cec drivers/usb/gadget/built-in.o
 .debug_line    0x0000000000046524     0x1477 drivers/usb/host/built-in.o
 .debug_line    0x000000000004799b     0x2512 env/built-in.o
 .debug_line    0x0000000000049ead     0x1926 fs/built-in.o
 .debug_line    0x000000000004b7d3    0x16534 lib/built-in.o
 .debug_line    0x0000000000061d07     0x48c1 net/built-in.o
 .debug_line    0x00000000000665c8      0x59e test/dm/built-in.o
 .debug_line    0x0000000000066b66      0x169 arch/arm/lib/lib.a(lib1funcs.o)
 .debug_line    0x0000000000066ccf      0x123 arch/arm/lib/lib.a(uldivmod.o)
 .debug_line    0x0000000000066df2       0xbc arch/arm/lib/lib.a(div0.o)

.debug_info     0x0000000000000000   0x1b6ad1
 .debug_info    0x0000000000000000       0x26 arch/arm/cpu/armv7/start.o
 .debug_info    0x0000000000000026     0x569e arch/arm/cpu/armv7/built-in.o
 .debug_info    0x00000000000056c4     0xbf5d arch/arm/lib/built-in.o
 .debug_info    0x0000000000011621    0x19962 arch/arm/mach-imx/built-in.o
 .debug_info    0x000000000002af83     0x7008 board/technexion/pico-imx7d/built-in.o
 .debug_info    0x0000000000031f8b    0x3e989 cmd/built-in.o
 .debug_info    0x0000000000070914    0x4ac3c common/built-in.o
 .debug_info    0x00000000000bb550     0x7e1f disk/built-in.o
 .debug_info    0x00000000000c336f    0x303a4 drivers/built-in.o
 .debug_info    0x00000000000f3713     0x1c0e drivers/gpio/built-in.o
 .debug_info    0x00000000000f5321     0x4616 drivers/i2c/built-in.o
 .debug_info    0x00000000000f9937     0x403f drivers/net/built-in.o
 .debug_info    0x00000000000fd976     0x517b drivers/net/phy/built-in.o
 .debug_info    0x0000000000102af1     0x3264 drivers/power/built-in.o
 .debug_info    0x0000000000105d55     0x150c drivers/power/pmic/built-in.o
 .debug_info    0x0000000000107261     0x3776 drivers/serial/built-in.o
 .debug_info    0x000000000010a9d7     0x4dc8 drivers/usb/eth/built-in.o
 .debug_info    0x000000000010f79f    0x1c427 drivers/usb/gadget/built-in.o
 .debug_info    0x000000000012bbc6     0x6cc4 drivers/usb/host/built-in.o
 .debug_info    0x000000000013288a     0x9597 env/built-in.o
 .debug_info    0x000000000013be21     0x7850 fs/built-in.o
 .debug_info    0x0000000000143671    0x5e4d0 lib/built-in.o
 .debug_info    0x00000000001a1b41    0x136e8 net/built-in.o
 .debug_info    0x00000000001b5229     0x1809 test/dm/built-in.o
 .debug_info    0x00000000001b6a32       0x22 arch/arm/lib/lib.a(lib1funcs.o)
 .debug_info    0x00000000001b6a54       0x26 arch/arm/lib/lib.a(uldivmod.o)
 .debug_info    0x00000000001b6a7a       0x57 arch/arm/lib/lib.a(div0.o)

.debug_abbrev   0x0000000000000000    0x35e67
 .debug_abbrev  0x0000000000000000       0x14 arch/arm/cpu/armv7/start.o
 .debug_abbrev  0x0000000000000014     0x1024 arch/arm/cpu/armv7/built-in.o
 .debug_abbrev  0x0000000000001038     0x1b2c arch/arm/lib/built-in.o
 .debug_abbrev  0x0000000000002b64     0x364f arch/arm/mach-imx/built-in.o
 .debug_abbrev  0x00000000000061b3      0x537 board/technexion/pico-imx7d/built-in.o
 .debug_abbrev  0x00000000000066ea     0x819f cmd/built-in.o
 .debug_abbrev  0x000000000000e889     0x8e95 common/built-in.o
 .debug_abbrev  0x000000000001771e     0x1056 disk/built-in.o
 .debug_abbrev  0x0000000000018774     0x6184 drivers/built-in.o
 .debug_abbrev  0x000000000001e8f8      0x2eb drivers/gpio/built-in.o
 .debug_abbrev  0x000000000001ebe3      0xa2e drivers/i2c/built-in.o
 .debug_abbrev  0x000000000001f611      0x5f1 drivers/net/built-in.o
 .debug_abbrev  0x000000000001fc02      0x960 drivers/net/phy/built-in.o
 .debug_abbrev  0x0000000000020562      0x72b drivers/power/built-in.o
 .debug_abbrev  0x0000000000020c8d      0x2b0 drivers/power/pmic/built-in.o
 .debug_abbrev  0x0000000000020f3d      0x8b3 drivers/serial/built-in.o
 .debug_abbrev  0x00000000000217f0      0x90b drivers/usb/eth/built-in.o
 .debug_abbrev  0x00000000000220fb     0x25ab drivers/usb/gadget/built-in.o
 .debug_abbrev  0x00000000000246a6      0xb3d drivers/usb/host/built-in.o
 .debug_abbrev  0x00000000000251e3     0x175e env/built-in.o
 .debug_abbrev  0x0000000000026941      0xee0 fs/built-in.o
 .debug_abbrev  0x0000000000027821     0xbc6b lib/built-in.o
 .debug_abbrev  0x000000000003348c     0x2662 net/built-in.o
 .debug_abbrev  0x0000000000035aee      0x2f5 test/dm/built-in.o
 .debug_abbrev  0x0000000000035de3       0x12 arch/arm/lib/lib.a(lib1funcs.o)
 .debug_abbrev  0x0000000000035df5       0x14 arch/arm/lib/lib.a(uldivmod.o)
 .debug_abbrev  0x0000000000035e09       0x5e arch/arm/lib/lib.a(div0.o)

.debug_aranges  0x0000000000000000     0x5868
 .debug_aranges
                0x0000000000000000       0x20 arch/arm/cpu/armv7/start.o
 .debug_aranges
                0x0000000000000020      0x1f0 arch/arm/cpu/armv7/built-in.o
 .debug_aranges
                0x0000000000000210      0x320 arch/arm/lib/built-in.o
 .debug_aranges
                0x0000000000000530      0x4e0 arch/arm/mach-imx/built-in.o
 .debug_aranges
                0x0000000000000a10       0xa8 board/technexion/pico-imx7d/built-in.o
 .debug_aranges
                0x0000000000000ab8      0x8f0 cmd/built-in.o
 .debug_aranges
                0x00000000000013a8     0x1068 common/built-in.o
 .debug_aranges
                0x0000000000002410      0x168 disk/built-in.o
 .debug_aranges
                0x0000000000002578      0x998 drivers/built-in.o
 .debug_aranges
                0x0000000000002f10       0x50 drivers/gpio/built-in.o
 .debug_aranges
                0x0000000000002f60      0x120 drivers/i2c/built-in.o
 .debug_aranges
                0x0000000000003080       0x88 drivers/net/built-in.o
 .debug_aranges
                0x0000000000003108      0x128 drivers/net/phy/built-in.o
 .debug_aranges
                0x0000000000003230       0x70 drivers/power/built-in.o
 .debug_aranges
                0x00000000000032a0       0x20 drivers/power/pmic/built-in.o
 .debug_aranges
                0x00000000000032c0      0x110 drivers/serial/built-in.o
 .debug_aranges
                0x00000000000033d0       0xc0 drivers/usb/eth/built-in.o
 .debug_aranges
                0x0000000000003490      0x500 drivers/usb/gadget/built-in.o
 .debug_aranges
                0x0000000000003990      0x130 drivers/usb/host/built-in.o
 .debug_aranges
                0x0000000000003ac0      0x1d0 env/built-in.o
 .debug_aranges
                0x0000000000003c90      0x1d8 fs/built-in.o
 .debug_aranges
                0x0000000000003e68     0x1540 lib/built-in.o
 .debug_aranges
                0x00000000000053a8      0x400 net/built-in.o
 .debug_aranges
                0x00000000000057a8       0x38 test/dm/built-in.o
 .debug_aranges
                0x00000000000057e0       0x48 arch/arm/lib/lib.a(lib1funcs.o)
 .debug_aranges
                0x0000000000005828       0x20 arch/arm/lib/lib.a(uldivmod.o)
 .debug_aranges
                0x0000000000005848       0x20 arch/arm/lib/lib.a(div0.o)

.debug_str      0x0000000000000000    0x2fddf
 .debug_str     0x0000000000000000      0x11b arch/arm/cpu/armv7/start.o
 .debug_str     0x000000000000011b     0x1508 arch/arm/cpu/armv7/built-in.o
                                       0x527d (size before relaxing)
 .debug_str     0x0000000000001623     0x27e5 arch/arm/lib/built-in.o
                                       0xb0bd (size before relaxing)
 .debug_str     0x0000000000003e08     0x4568 arch/arm/mach-imx/built-in.o
                                      0x15ddc (size before relaxing)
 .debug_str     0x0000000000008370     0xa183 board/technexion/pico-imx7d/built-in.o
                                       0xc00a (size before relaxing)
 .debug_str     0x00000000000124f3     0x4dd3 cmd/built-in.o
                                      0x305fb (size before relaxing)
 .debug_str     0x00000000000172c6     0x588d common/built-in.o
                                      0x3556b (size before relaxing)
 .debug_str     0x000000000001cb53      0xa0b disk/built-in.o
                                       0x4669 (size before relaxing)
 .debug_str     0x000000000001d55e     0x4527 drivers/built-in.o
                                      0x21e42 (size before relaxing)
 .debug_str     0x0000000000021a85      0x108 drivers/gpio/built-in.o
                                       0x1c87 (size before relaxing)
 .debug_str     0x0000000000021b8d      0x373 drivers/i2c/built-in.o
                                       0x2ace (size before relaxing)
 .debug_str     0x0000000000021f00      0x7ba drivers/net/built-in.o
                                       0x1fca (size before relaxing)
 .debug_str     0x00000000000226ba      0x44c drivers/net/phy/built-in.o
                                       0x2a1d (size before relaxing)
 .debug_str     0x0000000000022b06      0x201 drivers/power/built-in.o
                                       0x2773 (size before relaxing)
 .debug_str     0x0000000000022d07       0xb8 drivers/power/pmic/built-in.o
                                       0x1678 (size before relaxing)
 .debug_str     0x0000000000022dbf      0x31f drivers/serial/built-in.o
                                       0x2b01 (size before relaxing)
 .debug_str     0x00000000000230de      0x445 drivers/usb/eth/built-in.o
                                       0x352b (size before relaxing)
 .debug_str     0x0000000000023523     0x2d85 drivers/usb/gadget/built-in.o
                                       0xd02f (size before relaxing)
 .debug_str     0x00000000000262a8      0x6a0 drivers/usb/host/built-in.o
                                       0x3c0f (size before relaxing)
 .debug_str     0x0000000000026948      0xa1e env/built-in.o
                                       0x7dba (size before relaxing)
 .debug_str     0x0000000000027366      0xca3 fs/built-in.o
                                       0x43a8 (size before relaxing)
 .debug_str     0x0000000000028009     0x64a8 lib/built-in.o
                                      0x3ef5d (size before relaxing)
 .debug_str     0x000000000002e4b1     0x1689 net/built-in.o
                                       0xef4f (size before relaxing)
 .debug_str     0x000000000002fb3a       0xf1 test/dm/built-in.o
                                       0x1557 (size before relaxing)
 .debug_str     0x000000000002fc2b       0x91 arch/arm/lib/lib.a(lib1funcs.o)
                                        0x119 (size before relaxing)
 .debug_str     0x000000000002fcbc       0x90 arch/arm/lib/lib.a(uldivmod.o)
                                        0x118 (size before relaxing)
 .debug_str     0x000000000002fd4c       0x93 arch/arm/lib/lib.a(div0.o)
                                        0x260 (size before relaxing)

.debug_frame    0x0000000000000000     0xfaa4
 .debug_frame   0x0000000000000000      0x2d0 arch/arm/cpu/armv7/built-in.o
 .debug_frame   0x00000000000002d0      0x488 arch/arm/lib/built-in.o
 .debug_frame   0x0000000000000758      0xabc arch/arm/mach-imx/built-in.o
 .debug_frame   0x0000000000001214      0x1e0 board/technexion/pico-imx7d/built-in.o
 .debug_frame   0x00000000000013f4     0x183c cmd/built-in.o
 .debug_frame   0x0000000000002c30     0x3294 common/built-in.o
 .debug_frame   0x0000000000005ec4      0x5b0 disk/built-in.o
 .debug_frame   0x0000000000006474     0x1b60 drivers/built-in.o
 .debug_frame   0x0000000000007fd4       0xcc drivers/gpio/built-in.o
 .debug_frame   0x00000000000080a0      0x34c drivers/i2c/built-in.o
 .debug_frame   0x00000000000083ec      0x194 drivers/net/built-in.o
 .debug_frame   0x0000000000008580      0x3b0 drivers/net/phy/built-in.o
 .debug_frame   0x0000000000008930      0x11c drivers/power/built-in.o
 .debug_frame   0x0000000000008a4c       0x28 drivers/power/pmic/built-in.o
 .debug_frame   0x0000000000008a74      0x29c drivers/serial/built-in.o
 .debug_frame   0x0000000000008d10      0x25c drivers/usb/eth/built-in.o
 .debug_frame   0x0000000000008f6c     0x1034 drivers/usb/gadget/built-in.o
 .debug_frame   0x0000000000009fa0      0x370 drivers/usb/host/built-in.o
 .debug_frame   0x000000000000a310      0x508 env/built-in.o
 .debug_frame   0x000000000000a818      0x690 fs/built-in.o
 .debug_frame   0x000000000000aea8     0x3f00 lib/built-in.o
 .debug_frame   0x000000000000eda8      0xc60 net/built-in.o
 .debug_frame   0x000000000000fa08       0x7c test/dm/built-in.o
 .debug_frame   0x000000000000fa84       0x20 arch/arm/lib/lib.a(div0.o)

.debug_loc      0x0000000000000000    0xa07f2
 .debug_loc     0x0000000000000000      0x5db arch/arm/cpu/armv7/built-in.o
 .debug_loc     0x00000000000005db      0xeef arch/arm/lib/built-in.o
 .debug_loc     0x00000000000014ca     0x4322 arch/arm/mach-imx/built-in.o
 .debug_loc     0x00000000000057ec      0x706 board/technexion/pico-imx7d/built-in.o
 .debug_loc     0x0000000000005ef2     0xed8f cmd/built-in.o
 .debug_loc     0x0000000000014c81    0x160a0 common/built-in.o
 .debug_loc     0x000000000002ad21     0x2b59 disk/built-in.o
 .debug_loc     0x000000000002d87a     0xdbd9 drivers/built-in.o
 .debug_loc     0x000000000003b453      0x3ea drivers/gpio/built-in.o
 .debug_loc     0x000000000003b83d     0x1345 drivers/i2c/built-in.o
 .debug_loc     0x000000000003cb82     0x1784 drivers/net/built-in.o
 .debug_loc     0x000000000003e306     0x2bd2 drivers/net/phy/built-in.o
 .debug_loc     0x0000000000040ed8      0x74b drivers/power/built-in.o
 .debug_loc     0x0000000000041623       0x55 drivers/power/pmic/built-in.o
 .debug_loc     0x0000000000041678      0x653 drivers/serial/built-in.o
 .debug_loc     0x0000000000041ccb      0xe18 drivers/usb/eth/built-in.o
 .debug_loc     0x0000000000042ae3     0xbc5f drivers/usb/gadget/built-in.o
 .debug_loc     0x000000000004e742     0x2a82 drivers/usb/host/built-in.o
 .debug_loc     0x00000000000511c4     0x19d4 env/built-in.o
 .debug_loc     0x0000000000052b98     0x2fd7 fs/built-in.o
 .debug_loc     0x0000000000055b6f    0x45a09 lib/built-in.o
 .debug_loc     0x000000000009b578     0x4ff0 net/built-in.o
 .debug_loc     0x00000000000a0568      0x28a test/dm/built-in.o

.debug_ranges   0x0000000000000000     0xd3f8
 .debug_ranges  0x0000000000000000      0x198 arch/arm/cpu/armv7/built-in.o
 .debug_ranges  0x0000000000000198      0x378 arch/arm/lib/built-in.o
 .debug_ranges  0x0000000000000510      0x940 arch/arm/mach-imx/built-in.o
 .debug_ranges  0x0000000000000e50      0x110 board/technexion/pico-imx7d/built-in.o
 .debug_ranges  0x0000000000000f60     0x13c0 cmd/built-in.o
 .debug_ranges  0x0000000000002320     0x21e8 common/built-in.o
 .debug_ranges  0x0000000000004508      0x820 disk/built-in.o
 .debug_ranges  0x0000000000004d28     0x1918 drivers/built-in.o
 .debug_ranges  0x0000000000006640       0x40 drivers/gpio/built-in.o
 .debug_ranges  0x0000000000006680      0x300 drivers/i2c/built-in.o
 .debug_ranges  0x0000000000006980      0x400 drivers/net/built-in.o
 .debug_ranges  0x0000000000006d80      0x530 drivers/net/phy/built-in.o
 .debug_ranges  0x00000000000072b0       0xe8 drivers/power/built-in.o
 .debug_ranges  0x0000000000007398       0x10 drivers/power/pmic/built-in.o
 .debug_ranges  0x00000000000073a8      0x140 drivers/serial/built-in.o
 .debug_ranges  0x00000000000074e8      0x228 drivers/usb/eth/built-in.o
 .debug_ranges  0x0000000000007710     0x1b38 drivers/usb/gadget/built-in.o
 .debug_ranges  0x0000000000009248      0x458 drivers/usb/host/built-in.o
 .debug_ranges  0x00000000000096a0      0x340 env/built-in.o
 .debug_ranges  0x00000000000099e0      0x4b0 fs/built-in.o
 .debug_ranges  0x0000000000009e90     0x2b70 lib/built-in.o
 .debug_ranges  0x000000000000ca00      0x980 net/built-in.o
 .debug_ranges  0x000000000000d380       0x28 test/dm/built-in.o
 .debug_ranges  0x000000000000d3a8       0x40 arch/arm/lib/lib.a(lib1funcs.o)
 .debug_ranges  0x000000000000d3e8       0x10 arch/arm/lib/lib.a(div0.o)
